---
triple:          'arm64-apple-darwin'
binary-path:     "/Volumes/星舰雅请假记录/CPP学习（乐子版）/C项目/数据结构与算法/图/最小生成图"
relocations:
  - { offset: 0x4C, size: 0x8, addend: 0x0, symName: __ZN21AdjMatrixUndirNetworkIciE4ZEROE, symObjAddr: 0xBC34, symBinAddr: 0x1000138E0, symSize: 0x0 }
  - { offset: 0x754A, size: 0x8, addend: 0x0, symName: __ZNSt3__18__fill_nB8ne180100ILb1ENS_6vectorIbNS_9allocatorIbEEEEEEvNS_14__bit_iteratorIT0_Lb0ELi0EEENS6_9size_typeE, symObjAddr: 0x5594, symBinAddr: 0x10000CDD8, symSize: 0x158 }
  - { offset: 0x760F, size: 0x8, addend: 0x0, symName: __ZNSt3__18__fill_nB8ne180100ILb0ENS_6vectorIbNS_9allocatorIbEEEEEEvNS_14__bit_iteratorIT0_Lb0ELi0EEENS6_9size_typeE, symObjAddr: 0x5720, symBinAddr: 0x10000CF64, symSize: 0x154 }
  - { offset: 0x76D4, size: 0x8, addend: 0x0, symName: __ZNSt3__124__put_character_sequenceB8ne180100IcNS_11char_traitsIcEEEERNS_13basic_ostreamIT_T0_EES7_PKS4_m, symObjAddr: 0x5B6C, symBinAddr: 0x10000D3B0, symSize: 0x1E8 }
  - { offset: 0x9F58, size: 0x8, addend: 0x0, symName: __ZNSt3__111__introsortINS_17_ClassicAlgPolicyERZ19MiniSpanTreeKruskalIciEvRK21AdjMatrixUndirNetworkIT_T0_EEUlRK11KruskalEdgeIiESC_E_PSA_Lb0EEEvT1_SG_S5_NS_15iterator_traitsISG_E15difference_typeEb, symObjAddr: 0x8C58, symBinAddr: 0x10001049C, symSize: 0x478 }
  - { offset: 0xA083, size: 0x8, addend: 0x0, symName: __ZNSt3__126__insertion_sort_unguardedB8ne180100INS_17_ClassicAlgPolicyERZ19MiniSpanTreeKruskalIciEvRK21AdjMatrixUndirNetworkIT_T0_EEUlRK11KruskalEdgeIiESC_E_PSA_EEvT1_SG_S5_, symObjAddr: 0x9378, symBinAddr: 0x100010BBC, symSize: 0x130 }
  - { offset: 0xA173, size: 0x8, addend: 0x0, symName: __ZNSt3__111__sift_downB8ne180100INS_17_ClassicAlgPolicyERZ19MiniSpanTreeKruskalIciEvRK21AdjMatrixUndirNetworkIT_T0_EEUlRK11KruskalEdgeIiESC_E_PSA_EEvT1_OS5_NS_15iterator_traitsISG_E15difference_typeESG_, symObjAddr: 0xA54C, symBinAddr: 0x100011D90, symSize: 0x220 }
  - { offset: 0xA220, size: 0x8, addend: 0x0, symName: __ZNSt3__117__floyd_sift_downB8ne180100INS_17_ClassicAlgPolicyERZ19MiniSpanTreeKruskalIciEvRK21AdjMatrixUndirNetworkIT_T0_EEUlRK11KruskalEdgeIiESC_E_PSA_EET1_SG_OS5_NS_15iterator_traitsISG_E15difference_typeE, symObjAddr: 0xA91C, symBinAddr: 0x100012160, symSize: 0x108 }
  - { offset: 0xA2B8, size: 0x8, addend: 0x0, symName: __ZNSt3__131__partition_with_equals_on_leftB8ne180100INS_17_ClassicAlgPolicyEP11KruskalEdgeIiERZ19MiniSpanTreeKruskalIciEvRK21AdjMatrixUndirNetworkIT_T0_EEUlRKS3_SD_E_EES8_S8_S8_T1_, symObjAddr: 0x96B0, symBinAddr: 0x100010EF4, symSize: 0x214 }
  - { offset: 0xA373, size: 0x8, addend: 0x0, symName: __ZNSt3__118__bitset_partitionB8ne180100INS_17_ClassicAlgPolicyEP11KruskalEdgeIiERZ19MiniSpanTreeKruskalIciEvRK21AdjMatrixUndirNetworkIT_T0_EEUlRKS3_SD_E_EENS_4pairIS8_bEES8_S8_T1_, symObjAddr: 0x98C4, symBinAddr: 0x100011108, symSize: 0x304 }
  - { offset: 0xA46E, size: 0x8, addend: 0x0, symName: __ZNSt3__124__swap_bitmap_pos_withinB8ne180100INS_17_ClassicAlgPolicyEP11KruskalEdgeIiEEEvRT0_S6_RyS7_, symObjAddr: 0xB040, symBinAddr: 0x100012884, symSize: 0x1C0 }
  - { offset: 0xA53B, size: 0x8, addend: 0x0, symName: __ZNSt3__132__partition_with_equals_on_rightB8ne180100INS_17_ClassicAlgPolicyEP11KruskalEdgeIiERZ19MiniSpanTreeKruskalIciEvRK21AdjMatrixUndirNetworkIT_T0_EEUlRKS3_SD_E_EENS_4pairIS8_bEES8_S8_T1_, symObjAddr: 0x9BC8, symBinAddr: 0x10001140C, symSize: 0x220 }
  - { offset: 0xA605, size: 0x8, addend: 0x0, symName: __ZNSt3__127__insertion_sort_incompleteB8ne180100INS_17_ClassicAlgPolicyERZ19MiniSpanTreeKruskalIciEvRK21AdjMatrixUndirNetworkIT_T0_EEUlRK11KruskalEdgeIiESC_E_PSA_EEbT1_SG_S5_, symObjAddr: 0x9DE8, symBinAddr: 0x10001162C, symSize: 0x330 }
  - { offset: 0xAAE0, size: 0x8, addend: 0x0, symName: __ZNSt3__1lsB8ne180100INS_11char_traitsIcEEEERNS_13basic_ostreamIcT_EES6_PKc, symObjAddr: 0x458, symBinAddr: 0x100007C9C, symSize: 0x48 }
  - { offset: 0xAB26, size: 0x8, addend: 0x0, symName: __ZNSt3__119__libcpp_deallocateB8ne180100EPvmm, symObjAddr: 0xE98, symBinAddr: 0x1000086DC, symSize: 0x60 }
  - { offset: 0xAB8B, size: 0x8, addend: 0x0, symName: __ZNSt3__124__is_overaligned_for_newB8ne180100Em, symObjAddr: 0xEF8, symBinAddr: 0x10000873C, symSize: 0x1C }
  - { offset: 0xABB9, size: 0x8, addend: 0x0, symName: __ZNSt3__127__do_deallocate_handle_sizeB8ne180100IJSt11align_val_tEEEvPvmDpT_, symObjAddr: 0xF14, symBinAddr: 0x100008758, symSize: 0x30 }
  - { offset: 0xAC0C, size: 0x8, addend: 0x0, symName: __ZNSt3__127__do_deallocate_handle_sizeB8ne180100IJEEEvPvmDpT_, symObjAddr: 0xF44, symBinAddr: 0x100008788, symSize: 0x28 }
  - { offset: 0xAC4A, size: 0x8, addend: 0x0, symName: __ZNSt3__124__libcpp_operator_deleteB8ne180100IJPvSt11align_val_tEEEvDpT_, symObjAddr: 0xF6C, symBinAddr: 0x1000087B0, symSize: 0x2C }
  - { offset: 0xAC93, size: 0x8, addend: 0x0, symName: __ZNSt3__124__libcpp_operator_deleteB8ne180100IJPvEEEvDpT_, symObjAddr: 0xF98, symBinAddr: 0x1000087DC, symSize: 0x24 }
  - { offset: 0xACC8, size: 0x8, addend: 0x0, symName: __ZNSt3__112__to_addressB8ne180100INS_6vectorIiNS_9allocatorIiEEEEEEPT_S6_, symObjAddr: 0x12D4, symBinAddr: 0x100008B18, symSize: 0x14 }
  - { offset: 0xACFD, size: 0x8, addend: 0x0, symName: __ZNSt3__112__to_addressB8ne180100IiEEPT_S2_, symObjAddr: 0x15E4, symBinAddr: 0x100008E28, symSize: 0x14 }
  - { offset: 0xAD32, size: 0x8, addend: 0x0, symName: __ZNSt3__122__make_exception_guardB8ne180100INS_6vectorIcNS_9allocatorIcEEE16__destroy_vectorEEENS_28__exception_guard_exceptionsIT_EES7_, symObjAddr: 0x1918, symBinAddr: 0x10000915C, symSize: 0x40 }
  - { offset: 0xAD67, size: 0x8, addend: 0x0, symName: __ZNSt3__119__allocate_at_leastB8ne180100INS_9allocatorIcEEEENS_19__allocation_resultINS_16allocator_traitsIT_E7pointerEEERS5_m, symObjAddr: 0x1D14, symBinAddr: 0x100009558, symSize: 0x40 }
  - { offset: 0xADAA, size: 0x8, addend: 0x0, symName: __ZNSt3__13minB8ne180100ImEERKT_S3_S3_, symObjAddr: 0x1DB8, symBinAddr: 0x1000095FC, symSize: 0x2C }
  - { offset: 0xAFD7, size: 0x8, addend: 0x0, symName: __ZNSt3__13minB8ne180100ImNS_6__lessIvvEEEERKT_S5_S5_T0_, symObjAddr: 0x1E44, symBinAddr: 0x100009688, symSize: 0x54 }
  - { offset: 0xB076, size: 0x8, addend: 0x0, symName: __ZNSt3__120__throw_length_errorB8ne180100EPKc, symObjAddr: 0x1F1C, symBinAddr: 0x100009760, symSize: 0x64 }
  - { offset: 0xB09E, size: 0x8, addend: 0x0, symName: __ZNSt3__117__libcpp_allocateB8ne180100Emm, symObjAddr: 0x2080, symBinAddr: 0x1000098C4, symSize: 0x60 }
  - { offset: 0xB0F8, size: 0x8, addend: 0x0, symName: __ZNSt3__121__libcpp_operator_newB8ne180100IJmSt11align_val_tEEEPvDpT_, symObjAddr: 0x20E0, symBinAddr: 0x100009924, symSize: 0x2C }
  - { offset: 0xB145, size: 0x8, addend: 0x0, symName: __ZNSt3__121__libcpp_operator_newB8ne180100IJmEEEPvDpT_, symObjAddr: 0x210C, symBinAddr: 0x100009950, symSize: 0x24 }
  - { offset: 0xB17E, size: 0x8, addend: 0x0, symName: __ZNSt3__130__uninitialized_allocator_copyB8ne180100INS_9allocatorIcEEPKcS4_PcEET2_RT_T0_T1_S6_, symObjAddr: 0x21DC, symBinAddr: 0x100009A20, symSize: 0x80 }
  - { offset: 0xB21B, size: 0x8, addend: 0x0, symName: __ZNSt3__114__unwrap_rangeB8ne180100IPKcS2_EENS_4pairIT0_S4_EET_S6_, symObjAddr: 0x22CC, symBinAddr: 0x100009B10, symSize: 0x60 }
  - { offset: 0xB267, size: 0x8, addend: 0x0, symName: __ZNSt3__135__uninitialized_allocator_copy_implB8ne180100INS_9allocatorIcEEKcccTnPNS_9enable_ifIXaaaaaasr31is_trivially_copy_constructibleIT1_EE5valuesr28is_trivially_copy_assignableIS5_EE5valuesr7is_sameIu14__remove_constIT0_Eu14__remove_constIT2_EEE5valuesr38__allocator_has_trivial_copy_constructIT_S5_EE5valueEvE4typeELPv0EEEPS8_RSA_PS6_SH_SF_, symObjAddr: 0x232C, symBinAddr: 0x100009B70, symSize: 0x38 }
  - { offset: 0xB2E8, size: 0x8, addend: 0x0, symName: __ZNSt3__113__unwrap_iterB8ne180100IPcNS_18__unwrap_iter_implIS1_Lb1EEETnNS_9enable_ifIXsr21is_copy_constructibleIT_EE5valueEiE4typeELi0EEEDTclsrT0_8__unwrapclsr3stdE7declvalIS5_EEEES5_, symObjAddr: 0x2364, symBinAddr: 0x100009BA8, symSize: 0x24 }
  - { offset: 0xB32C, size: 0x8, addend: 0x0, symName: __ZNSt3__113__rewrap_iterB8ne180100IPcS1_NS_18__unwrap_iter_implIS1_Lb1EEEEET_S4_T0_, symObjAddr: 0x2388, symBinAddr: 0x100009BCC, symSize: 0x3C }
  - { offset: 0xB381, size: 0x8, addend: 0x0, symName: __ZNSt3__19make_pairB8ne180100IPKcS2_EENS_4pairINS_18__unwrap_ref_decayIT_E4typeENS4_IT0_E4typeEEEOS5_OS8_, symObjAddr: 0x23C4, symBinAddr: 0x100009C08, symSize: 0x38 }
  - { offset: 0xB3D0, size: 0x8, addend: 0x0, symName: __ZNSt3__113__unwrap_iterB8ne180100IPKcNS_18__unwrap_iter_implIS2_Lb1EEETnNS_9enable_ifIXsr21is_copy_constructibleIT_EE5valueEiE4typeELi0EEEDTclsrT0_8__unwrapclsr3stdE7declvalIS6_EEEES6_, symObjAddr: 0x23FC, symBinAddr: 0x100009C40, symSize: 0x24 }
  - { offset: 0xB53B, size: 0x8, addend: 0x0, symName: __ZNSt3__112__to_addressB8ne180100IKcEEPT_S3_, symObjAddr: 0x24B4, symBinAddr: 0x100009CF8, symSize: 0x14 }
  - { offset: 0xB570, size: 0x8, addend: 0x0, symName: __ZNSt3__14copyB8ne180100IPKcPcEET0_T_S5_S4_, symObjAddr: 0x24C8, symBinAddr: 0x100009D0C, symSize: 0x40 }
  - { offset: 0xB5CA, size: 0x8, addend: 0x0, symName: __ZNSt3__16__copyB8ne180100INS_17_ClassicAlgPolicyEPKcS3_PcEENS_4pairIT0_T2_EES6_T1_S7_, symObjAddr: 0x2508, symBinAddr: 0x100009D4C, symSize: 0x44 }
  - { offset: 0xB636, size: 0x8, addend: 0x0, symName: __ZNSt3__123__dispatch_copy_or_moveB8ne180100INS_17_ClassicAlgPolicyENS_11__copy_loopIS1_EENS_14__copy_trivialEPKcS6_PcEENS_4pairIT2_T4_EES9_T3_SA_, symObjAddr: 0x254C, symBinAddr: 0x100009D90, symSize: 0x44 }
  - { offset: 0xB6B4, size: 0x8, addend: 0x0, symName: __ZNSt3__121__unwrap_and_dispatchB8ne180100INS_10__overloadINS_11__copy_loopINS_17_ClassicAlgPolicyEEENS_14__copy_trivialEEEPKcS8_PcTnNS_9enable_ifIXsr12__can_rewrapIT0_T1_T2_EE5valueEiE4typeELi0EEENS_4pairISB_SD_EESB_SC_SD_, symObjAddr: 0x2590, symBinAddr: 0x100009DD4, symSize: 0xB4 }
  - { offset: 0xB903, size: 0x8, addend: 0x0, symName: __ZNSt3__19make_pairB8ne180100IPKcPcEENS_4pairINS_18__unwrap_ref_decayIT_E4typeENS5_IT0_E4typeEEEOS6_OS9_, symObjAddr: 0x268C, symBinAddr: 0x100009ED0, symSize: 0x38 }
  - { offset: 0xB952, size: 0x8, addend: 0x0, symName: __ZNSt3__114__rewrap_rangeB8ne180100IPKcS2_EET_S3_T0_, symObjAddr: 0x26C4, symBinAddr: 0x100009F08, symSize: 0x2C }
  - { offset: 0xB99E, size: 0x8, addend: 0x0, symName: __ZNSt3__119__copy_trivial_implB8ne180100IKccEENS_4pairIPT_PT0_EES4_S4_S6_, symObjAddr: 0x26F0, symBinAddr: 0x100009F34, symSize: 0x78 }
  - { offset: 0xBA06, size: 0x8, addend: 0x0, symName: __ZNSt3__119__constexpr_memmoveB8ne180100IcKcTnNS_9enable_ifIXsr23__is_always_bitcastableIT0_T_EE5valueEiE4typeELi0EEEPS4_S7_PS3_NS_15__element_countE, symObjAddr: 0x2768, symBinAddr: 0x100009FAC, symSize: 0x60 }
  - { offset: 0xBA74, size: 0x8, addend: 0x0, symName: __ZNSt3__19make_pairB8ne180100IRPKcPcEENS_4pairINS_18__unwrap_ref_decayIT_E4typeENS6_IT0_E4typeEEEOS7_OSA_, symObjAddr: 0x27C8, symBinAddr: 0x10000A00C, symSize: 0x38 }
  - { offset: 0xBAC3, size: 0x8, addend: 0x0, symName: __ZNSt3__113__rewrap_iterB8ne180100IPKcS2_NS_18__unwrap_iter_implIS2_Lb1EEEEET_S5_T0_, symObjAddr: 0x28E0, symBinAddr: 0x10000A124, symSize: 0x3C }
  - { offset: 0xBB6B, size: 0x8, addend: 0x0, symName: __ZNSt3__112__to_addressB8ne180100IcEEPT_S2_, symObjAddr: 0x2988, symBinAddr: 0x10000A1CC, symSize: 0x14 }
  - { offset: 0xBBA0, size: 0x8, addend: 0x0, symName: __ZNSt3__122__make_exception_guardB8ne180100INS_6vectorIiNS_9allocatorIiEEE16__destroy_vectorEEENS_28__exception_guard_exceptionsIT_EES7_, symObjAddr: 0x3058, symBinAddr: 0x10000A89C, symSize: 0x40 }
  - { offset: 0xBBD5, size: 0x8, addend: 0x0, symName: __ZNSt3__119__allocate_at_leastB8ne180100INS_9allocatorIiEEEENS_19__allocation_resultINS_16allocator_traitsIT_E7pointerEEERS5_m, symObjAddr: 0x33F0, symBinAddr: 0x10000AC34, symSize: 0x40 }
  - { offset: 0xBC18, size: 0x8, addend: 0x0, symName: __ZNSt3__122__make_exception_guardB8ne180100INS_6vectorINS1_IiNS_9allocatorIiEEEENS2_IS4_EEE16__destroy_vectorEEENS_28__exception_guard_exceptionsIT_EES9_, symObjAddr: 0x3814, symBinAddr: 0x10000B058, symSize: 0x40 }
  - { offset: 0xBC4D, size: 0x8, addend: 0x0, symName: __ZNSt3__119__allocate_at_leastB8ne180100INS_9allocatorINS_6vectorIiNS1_IiEEEEEEEENS_19__allocation_resultINS_16allocator_traitsIT_E7pointerEEERS8_m, symObjAddr: 0x3BB4, symBinAddr: 0x10000B3F8, symSize: 0x40 }
  - { offset: 0xBC90, size: 0x8, addend: 0x0, symName: __ZNSt3__130__uninitialized_allocator_copyB8ne180100INS_9allocatorIiEEPiS3_S3_EET2_RT_T0_T1_S4_, symObjAddr: 0x414C, symBinAddr: 0x10000B990, symSize: 0x80 }
  - { offset: 0xBD2D, size: 0x8, addend: 0x0, symName: __ZNSt3__114__unwrap_rangeB8ne180100IPiS1_EENS_4pairIT0_S3_EET_S5_, symObjAddr: 0x41CC, symBinAddr: 0x10000BA10, symSize: 0x60 }
  - { offset: 0xBD79, size: 0x8, addend: 0x0, symName: __ZNSt3__135__uninitialized_allocator_copy_implB8ne180100INS_9allocatorIiEEiiiTnPNS_9enable_ifIXaaaaaasr31is_trivially_copy_constructibleIT1_EE5valuesr28is_trivially_copy_assignableIS4_EE5valuesr7is_sameIu14__remove_constIT0_Eu14__remove_constIT2_EEE5valuesr38__allocator_has_trivial_copy_constructIT_S4_EE5valueEvE4typeELPv0EEEPS7_RS9_PS5_SG_SE_, symObjAddr: 0x422C, symBinAddr: 0x10000BA70, symSize: 0x38 }
  - { offset: 0xBDFA, size: 0x8, addend: 0x0, symName: __ZNSt3__113__unwrap_iterB8ne180100IPiNS_18__unwrap_iter_implIS1_Lb1EEETnNS_9enable_ifIXsr21is_copy_constructibleIT_EE5valueEiE4typeELi0EEEDTclsrT0_8__unwrapclsr3stdE7declvalIS5_EEEES5_, symObjAddr: 0x4264, symBinAddr: 0x10000BAA8, symSize: 0x24 }
  - { offset: 0xBE3E, size: 0x8, addend: 0x0, symName: __ZNSt3__113__rewrap_iterB8ne180100IPiS1_NS_18__unwrap_iter_implIS1_Lb1EEEEET_S4_T0_, symObjAddr: 0x4288, symBinAddr: 0x10000BACC, symSize: 0x3C }
  - { offset: 0xBE93, size: 0x8, addend: 0x0, symName: __ZNSt3__19make_pairB8ne180100IPiS1_EENS_4pairINS_18__unwrap_ref_decayIT_E4typeENS3_IT0_E4typeEEEOS4_OS7_, symObjAddr: 0x42C4, symBinAddr: 0x10000BB08, symSize: 0x38 }
  - { offset: 0xBFE5, size: 0x8, addend: 0x0, symName: __ZNSt3__14copyB8ne180100IPiS1_EET0_T_S3_S2_, symObjAddr: 0x436C, symBinAddr: 0x10000BBB0, symSize: 0x40 }
  - { offset: 0xC03F, size: 0x8, addend: 0x0, symName: __ZNSt3__16__copyB8ne180100INS_17_ClassicAlgPolicyEPiS2_S2_EENS_4pairIT0_T2_EES4_T1_S5_, symObjAddr: 0x43AC, symBinAddr: 0x10000BBF0, symSize: 0x44 }
  - { offset: 0xC0AB, size: 0x8, addend: 0x0, symName: __ZNSt3__123__dispatch_copy_or_moveB8ne180100INS_17_ClassicAlgPolicyENS_11__copy_loopIS1_EENS_14__copy_trivialEPiS5_S5_EENS_4pairIT2_T4_EES7_T3_S8_, symObjAddr: 0x43F0, symBinAddr: 0x10000BC34, symSize: 0x44 }
  - { offset: 0xC129, size: 0x8, addend: 0x0, symName: __ZNSt3__121__unwrap_and_dispatchB8ne180100INS_10__overloadINS_11__copy_loopINS_17_ClassicAlgPolicyEEENS_14__copy_trivialEEEPiS7_S7_TnNS_9enable_ifIXsr12__can_rewrapIT0_T1_T2_EE5valueEiE4typeELi0EEENS_4pairIS9_SB_EES9_SA_SB_, symObjAddr: 0x4434, symBinAddr: 0x10000BC78, symSize: 0xB4 }
  - { offset: 0xC1B7, size: 0x8, addend: 0x0, symName: __ZNSt3__114__rewrap_rangeB8ne180100IPiS1_EET_S2_T0_, symObjAddr: 0x4530, symBinAddr: 0x10000BD74, symSize: 0x2C }
  - { offset: 0xC203, size: 0x8, addend: 0x0, symName: __ZNSt3__119__copy_trivial_implB8ne180100IiiEENS_4pairIPT_PT0_EES3_S3_S5_, symObjAddr: 0x455C, symBinAddr: 0x10000BDA0, symSize: 0x80 }
  - { offset: 0xC26B, size: 0x8, addend: 0x0, symName: __ZNSt3__119__constexpr_memmoveB8ne180100IiiTnNS_9enable_ifIXsr23__is_always_bitcastableIT0_T_EE5valueEiE4typeELi0EEEPS3_S6_PS2_NS_15__element_countE, symObjAddr: 0x45DC, symBinAddr: 0x10000BE20, symSize: 0x60 }
  - { offset: 0xC2D9, size: 0x8, addend: 0x0, symName: __ZNSt3__19make_pairB8ne180100IRPiS1_EENS_4pairINS_18__unwrap_ref_decayIT_E4typeENS4_IT0_E4typeEEEOS5_OS8_, symObjAddr: 0x463C, symBinAddr: 0x10000BE80, symSize: 0x38 }
  - { offset: 0xC37B, size: 0x8, addend: 0x0, symName: __ZNSt3__130__uninitialized_allocator_copyB8ne180100INS_9allocatorIcEEPcS3_S3_EET2_RT_T0_T1_S4_, symObjAddr: 0x4A3C, symBinAddr: 0x10000C280, symSize: 0x80 }
  - { offset: 0xC418, size: 0x8, addend: 0x0, symName: __ZNSt3__114__unwrap_rangeB8ne180100IPcS1_EENS_4pairIT0_S3_EET_S5_, symObjAddr: 0x4ABC, symBinAddr: 0x10000C300, symSize: 0x60 }
  - { offset: 0xC464, size: 0x8, addend: 0x0, symName: __ZNSt3__135__uninitialized_allocator_copy_implB8ne180100INS_9allocatorIcEEcccTnPNS_9enable_ifIXaaaaaasr31is_trivially_copy_constructibleIT1_EE5valuesr28is_trivially_copy_assignableIS4_EE5valuesr7is_sameIu14__remove_constIT0_Eu14__remove_constIT2_EEE5valuesr38__allocator_has_trivial_copy_constructIT_S4_EE5valueEvE4typeELPv0EEEPS7_RS9_PS5_SG_SE_, symObjAddr: 0x4B1C, symBinAddr: 0x10000C360, symSize: 0x38 }
  - { offset: 0xC4E5, size: 0x8, addend: 0x0, symName: __ZNSt3__19make_pairB8ne180100IPcS1_EENS_4pairINS_18__unwrap_ref_decayIT_E4typeENS3_IT0_E4typeEEEOS4_OS7_, symObjAddr: 0x4B54, symBinAddr: 0x10000C398, symSize: 0x38 }
  - { offset: 0xC637, size: 0x8, addend: 0x0, symName: __ZNSt3__14copyB8ne180100IPcS1_EET0_T_S3_S2_, symObjAddr: 0x4BFC, symBinAddr: 0x10000C440, symSize: 0x40 }
  - { offset: 0xC691, size: 0x8, addend: 0x0, symName: __ZNSt3__16__copyB8ne180100INS_17_ClassicAlgPolicyEPcS2_S2_EENS_4pairIT0_T2_EES4_T1_S5_, symObjAddr: 0x4C3C, symBinAddr: 0x10000C480, symSize: 0x44 }
  - { offset: 0xC6FD, size: 0x8, addend: 0x0, symName: __ZNSt3__123__dispatch_copy_or_moveB8ne180100INS_17_ClassicAlgPolicyENS_11__copy_loopIS1_EENS_14__copy_trivialEPcS5_S5_EENS_4pairIT2_T4_EES7_T3_S8_, symObjAddr: 0x4C80, symBinAddr: 0x10000C4C4, symSize: 0x44 }
  - { offset: 0xC77B, size: 0x8, addend: 0x0, symName: __ZNSt3__121__unwrap_and_dispatchB8ne180100INS_10__overloadINS_11__copy_loopINS_17_ClassicAlgPolicyEEENS_14__copy_trivialEEEPcS7_S7_TnNS_9enable_ifIXsr12__can_rewrapIT0_T1_T2_EE5valueEiE4typeELi0EEENS_4pairIS9_SB_EES9_SA_SB_, symObjAddr: 0x4CC4, symBinAddr: 0x10000C508, symSize: 0xB4 }
  - { offset: 0xC809, size: 0x8, addend: 0x0, symName: __ZNSt3__114__rewrap_rangeB8ne180100IPcS1_EET_S2_T0_, symObjAddr: 0x4DC0, symBinAddr: 0x10000C604, symSize: 0x2C }
  - { offset: 0xC855, size: 0x8, addend: 0x0, symName: __ZNSt3__119__copy_trivial_implB8ne180100IccEENS_4pairIPT_PT0_EES3_S3_S5_, symObjAddr: 0x4DEC, symBinAddr: 0x10000C630, symSize: 0x78 }
  - { offset: 0xC8BD, size: 0x8, addend: 0x0, symName: __ZNSt3__119__constexpr_memmoveB8ne180100IccTnNS_9enable_ifIXsr23__is_always_bitcastableIT0_T_EE5valueEiE4typeELi0EEEPS3_S6_PS2_NS_15__element_countE, symObjAddr: 0x4E64, symBinAddr: 0x10000C6A8, symSize: 0x60 }
  - { offset: 0xC92B, size: 0x8, addend: 0x0, symName: __ZNSt3__19make_pairB8ne180100IRPcS1_EENS_4pairINS_18__unwrap_ref_decayIT_E4typeENS4_IT0_E4typeEEEOS5_OS8_, symObjAddr: 0x4EC4, symBinAddr: 0x10000C708, symSize: 0x38 }
  - { offset: 0xC97A, size: 0x8, addend: 0x0, symName: __ZNSt3__119__allocate_at_leastB8ne180100INS_9allocatorImEEEENS_19__allocation_resultINS_16allocator_traitsIT_E7pointerEEERS5_m, symObjAddr: 0x5324, symBinAddr: 0x10000CB68, symSize: 0x40 }
  - { offset: 0xCBA9, size: 0x8, addend: 0x0, symName: __ZNSt3__16fill_nB8ne180100INS_6vectorIbNS_9allocatorIbEEEEEEvNS_14__bit_iteratorIT_Lb0ELi0EEENS6_9size_typeEb, symObjAddr: 0x54A8, symBinAddr: 0x10000CCEC, symSize: 0x88 }
  - { offset: 0xCBF7, size: 0x8, addend: 0x0, symName: __ZNSt3__16fill_nB8ne180100IPmmmEET_S2_T0_RKT1_, symObjAddr: 0x5874, symBinAddr: 0x10000D0B8, symSize: 0x44 }
  - { offset: 0xCC5A, size: 0x8, addend: 0x0, symName: __ZNSt3__112__to_addressB8ne180100ImEEPT_S2_, symObjAddr: 0x58B8, symBinAddr: 0x10000D0FC, symSize: 0x14 }
  - { offset: 0xCC8F, size: 0x8, addend: 0x0, symName: __ZNSt3__18__fill_nB8ne180100IPmmmEET_S2_T0_RKT1_, symObjAddr: 0x58CC, symBinAddr: 0x10000D110, symSize: 0x60 }
  - { offset: 0xCCF2, size: 0x8, addend: 0x0, symName: __ZNSt3__121__convert_to_integralB8ne180100Em, symObjAddr: 0x592C, symBinAddr: 0x10000D170, symSize: 0x14 }
  - { offset: 0xCD1E, size: 0x8, addend: 0x0, symName: __ZNSt3__116__pad_and_outputB8ne180100IcNS_11char_traitsIcEEEENS_19ostreambuf_iteratorIT_T0_EES6_PKS4_S8_S8_RNS_8ios_baseES4_, symObjAddr: 0x5DA4, symBinAddr: 0x10000D5E8, symSize: 0x214 }
  - { offset: 0xCE20, size: 0x8, addend: 0x0, symName: __ZNSt3__19use_facetB8ne180100INS_5ctypeIcEEEERKT_RKNS_6localeE, symObjAddr: 0x650C, symBinAddr: 0x10000DD50, symSize: 0x2C }
  - { offset: 0xD2ED, size: 0x8, addend: 0x0, symName: __ZNSt3__118__constexpr_strlenB8ne180100EPKc, symObjAddr: 0x65A4, symBinAddr: 0x10000DDE8, symSize: 0x24 }
  - { offset: 0xD319, size: 0x8, addend: 0x0, symName: __ZNSt3__14endlB8ne180100IcNS_11char_traitsIcEEEERNS_13basic_ostreamIT_T0_EES7_, symObjAddr: 0x660C, symBinAddr: 0x10000DE50, symSize: 0x58 }
  - { offset: 0xD359, size: 0x8, addend: 0x0, symName: __ZNSt3__14sortB8ne180100INS_11__wrap_iterIP11KruskalEdgeIiEEEZ19MiniSpanTreeKruskalIciEvRK21AdjMatrixUndirNetworkIT_T0_EEUlRKS3_SE_E_EEvS8_S8_S9_, symObjAddr: 0x70BC, symBinAddr: 0x10000E900, symSize: 0x40 }
  - { offset: 0xD3B3, size: 0x8, addend: 0x0, symName: __ZNSt3__1neB8ne180100IP11KruskalEdgeIiEEEbRKNS_11__wrap_iterIT_EES8_, symObjAddr: 0x7190, symBinAddr: 0x10000E9D4, symSize: 0x30 }
  - { offset: 0xD3F6, size: 0x8, addend: 0x0, symName: __ZNSt3__112__to_addressB8ne180100I11KruskalEdgeIiEEEPT_S4_, symObjAddr: 0x7800, symBinAddr: 0x10000F044, symSize: 0x14 }
  - { offset: 0xD42B, size: 0x8, addend: 0x0, symName: __ZNSt3__13maxB8ne180100ImEERKT_S3_S3_, symObjAddr: 0x7C24, symBinAddr: 0x10000F468, symSize: 0x2C }
  - { offset: 0xD46E, size: 0x8, addend: 0x0, symName: __ZNSt3__13maxB8ne180100ImNS_6__lessIvvEEEERKT_S5_S5_T0_, symObjAddr: 0x7D4C, symBinAddr: 0x10000F590, symSize: 0x54 }
  - { offset: 0xD4C8, size: 0x8, addend: 0x0, symName: __ZNSt3__119__allocate_at_leastB8ne180100INS_9allocatorI11KruskalEdgeIiEEEEENS_19__allocation_resultINS_16allocator_traitsIT_E7pointerEEERS7_m, symObjAddr: 0x7EB4, symBinAddr: 0x10000F6F8, symSize: 0x40 }
  - { offset: 0xD50B, size: 0x8, addend: 0x0, symName: __ZNSt3__142__uninitialized_allocator_move_if_noexceptB8ne180100INS_9allocatorI11KruskalEdgeIiEEENS_16reverse_iteratorIPS3_EES7_S3_vEET1_RT_T0_SB_S8_, symObjAddr: 0x8078, symBinAddr: 0x10000F8BC, symSize: 0x78 }
  - { offset: 0xD588, size: 0x8, addend: 0x0, symName: __ZNSt3__14swapB8ne180100IP11KruskalEdgeIiEEENS_9enable_ifIXaasr21is_move_constructibleIT_EE5valuesr18is_move_assignableIS5_EE5valueEvE4typeERS5_S8_, symObjAddr: 0x813C, symBinAddr: 0x10000F980, symSize: 0x3C }
  - { offset: 0xD5D9, size: 0x8, addend: 0x0, symName: __ZNSt3__14moveB8ne180100INS_16reverse_iteratorIP11KruskalEdgeIiEEES5_EET0_T_S7_S6_, symObjAddr: 0x818C, symBinAddr: 0x10000F9D0, symSize: 0x78 }
  - { offset: 0xD633, size: 0x8, addend: 0x0, symName: __ZNSt3__16__moveB8ne180100INS_17_ClassicAlgPolicyENS_16reverse_iteratorIP11KruskalEdgeIiEEES6_S6_EENS_4pairIT0_T2_EES8_T1_S9_, symObjAddr: 0x8204, symBinAddr: 0x10000FA48, symSize: 0x64 }
  - { offset: 0xD69F, size: 0x8, addend: 0x0, symName: __ZNSt3__123__dispatch_copy_or_moveB8ne180100INS_17_ClassicAlgPolicyENS_11__move_loopIS1_EENS_14__move_trivialENS_16reverse_iteratorIP11KruskalEdgeIiEEES9_S9_EENS_4pairIT2_T4_EESB_T3_SC_, symObjAddr: 0x8268, symBinAddr: 0x10000FAAC, symSize: 0x64 }
  - { offset: 0xD71D, size: 0x8, addend: 0x0, symName: __ZNSt3__121__unwrap_and_dispatchB8ne180100INS_10__overloadINS_11__move_loopINS_17_ClassicAlgPolicyEEENS_14__move_trivialEEENS_16reverse_iteratorIP11KruskalEdgeIiEEESB_SB_TnNS_9enable_ifIXsr12__can_rewrapIT0_T1_T2_EE5valueEiE4typeELi0EEENS_4pairISD_SF_EESD_SE_SF_, symObjAddr: 0x82CC, symBinAddr: 0x10000FB10, symSize: 0x12C }
  - { offset: 0xD7AD, size: 0x8, addend: 0x0, symName: __ZNSt3__114__unwrap_rangeB8ne180100INS_16reverse_iteratorIP11KruskalEdgeIiEEES5_EENS_4pairIT0_S7_EET_S9_, symObjAddr: 0x83F8, symBinAddr: 0x10000FC3C, symSize: 0x84 }
  - { offset: 0xD928, size: 0x8, addend: 0x0, symName: __ZNSt3__113__unwrap_iterB8ne180100INS_16reverse_iteratorIP11KruskalEdgeIiEEENS_18__unwrap_iter_implIS5_Lb0EEETnNS_9enable_ifIXsr21is_copy_constructibleIT_EE5valueEiE4typeELi0EEEDTclsrT0_8__unwrapclsr3stdE7declvalIS9_EEEES9_, symObjAddr: 0x8524, symBinAddr: 0x10000FD68, symSize: 0x44 }
  - { offset: 0xD96C, size: 0x8, addend: 0x0, symName: __ZNSt3__19make_pairB8ne180100INS_16reverse_iteratorIP11KruskalEdgeIiEEES5_EENS_4pairINS_18__unwrap_ref_decayIT_E4typeENS7_IT0_E4typeEEEOS8_OSB_, symObjAddr: 0x8568, symBinAddr: 0x10000FDAC, symSize: 0x38 }
  - { offset: 0xD9BB, size: 0x8, addend: 0x0, symName: __ZNSt3__114__rewrap_rangeB8ne180100INS_16reverse_iteratorIP11KruskalEdgeIiEEES5_EET_S6_T0_, symObjAddr: 0x85A0, symBinAddr: 0x10000FDE4, symSize: 0x5C }
  - { offset: 0xDA07, size: 0x8, addend: 0x0, symName: __ZNSt3__113__rewrap_iterB8ne180100INS_16reverse_iteratorIP11KruskalEdgeIiEEES5_NS_18__unwrap_iter_implIS5_Lb0EEEEET_S8_T0_, symObjAddr: 0x85FC, symBinAddr: 0x10000FE40, symSize: 0x74 }
  - { offset: 0xDA5C, size: 0x8, addend: 0x0, symName: __ZNSt3__1neB8ne180100IP11KruskalEdgeIiES3_EEbRKNS_16reverse_iteratorIT_EERKNS4_IT0_EE, symObjAddr: 0x8670, symBinAddr: 0x10000FEB4, symSize: 0x44 }
  - { offset: 0xDC31, size: 0x8, addend: 0x0, symName: __ZNSt3__111__sort_implB8ne180100INS_17_ClassicAlgPolicyENS_11__wrap_iterIP11KruskalEdgeIiEEEZ19MiniSpanTreeKruskalIciEvRK21AdjMatrixUndirNetworkIT_T0_EEUlRKS4_SF_E_EEvSA_SA_RT1_, symObjAddr: 0x8AA8, symBinAddr: 0x1000102EC, symSize: 0xA8 }
  - { offset: 0xDC94, size: 0x8, addend: 0x0, symName: __ZNSt3__123__debug_randomize_rangeB8ne180100INS_17_ClassicAlgPolicyENS_11__wrap_iterIP11KruskalEdgeIiEEES6_EEvT0_T1_, symObjAddr: 0x8B50, symBinAddr: 0x100010394, symSize: 0x14 }
  - { offset: 0xDCE5, size: 0x8, addend: 0x0, symName: __ZNSt3__115__sort_dispatchB8ne180100INS_17_ClassicAlgPolicyEP11KruskalEdgeIiEZ19MiniSpanTreeKruskalIciEvRK21AdjMatrixUndirNetworkIT_T0_EEUlRKS3_SD_E_EEvS8_S8_RT1_, symObjAddr: 0x8B64, symBinAddr: 0x1000103A8, symSize: 0x64 }
  - { offset: 0xDD63, size: 0x8, addend: 0x0, symName: __ZNSt3__113__unwrap_iterB8ne180100INS_11__wrap_iterIP11KruskalEdgeIiEEENS_18__unwrap_iter_implIS5_Lb1EEETnNS_9enable_ifIXsr21is_copy_constructibleIT_EE5valueEiE4typeELi0EEEDTclsrT0_8__unwrapclsr3stdE7declvalIS9_EEEES9_, symObjAddr: 0x8BC8, symBinAddr: 0x10001040C, symSize: 0x2C }
  - { offset: 0xDDA7, size: 0x8, addend: 0x0, symName: __ZNSt3__135__check_strict_weak_ordering_sortedB8ne180100IP11KruskalEdgeIiEZ19MiniSpanTreeKruskalIciEvRK21AdjMatrixUndirNetworkIT_T0_EEUlRKS2_SC_E_EEvS6_S6_RS7_, symObjAddr: 0x8BF4, symBinAddr: 0x100010438, symSize: 0x18 }
  - { offset: 0xDDFD, size: 0x8, addend: 0x0, symName: __ZNSt3__17__log2iB8ne180100IlEET_S1_, symObjAddr: 0x8C0C, symBinAddr: 0x100010450, symSize: 0x4C }
  - { offset: 0xDE34, size: 0x8, addend: 0x0, symName: __ZNSt3__112__libcpp_clzB8ne180100Em, symObjAddr: 0x90D0, symBinAddr: 0x100010914, symSize: 0x1C }
  - { offset: 0xDE60, size: 0x8, addend: 0x0, symName: __ZNSt3__124__sort3_maybe_branchlessB8ne180100INS_17_ClassicAlgPolicyERZ19MiniSpanTreeKruskalIciEvRK21AdjMatrixUndirNetworkIT_T0_EEUlRK11KruskalEdgeIiESC_E_PSA_TnNS_9enable_ifIXntsr21__use_branchless_sortIS5_T1_EE5valueEiE4typeELi0EEEvSH_SH_SH_S5_, symObjAddr: 0x9150, symBinAddr: 0x100010994, symSize: 0x3C }
  - { offset: 0xDED3, size: 0x8, addend: 0x0, symName: __ZNSt3__124__sort4_maybe_branchlessB8ne180100INS_17_ClassicAlgPolicyERZ19MiniSpanTreeKruskalIciEvRK21AdjMatrixUndirNetworkIT_T0_EEUlRK11KruskalEdgeIiESC_E_PSA_TnNS_9enable_ifIXntsr21__use_branchless_sortIS5_T1_EE5valueEiE4typeELi0EEEvSH_SH_SH_SH_S5_, symObjAddr: 0x918C, symBinAddr: 0x1000109D0, symSize: 0x44 }
  - { offset: 0xDF54, size: 0x8, addend: 0x0, symName: __ZNSt3__124__sort5_maybe_branchlessB8ne180100INS_17_ClassicAlgPolicyERZ19MiniSpanTreeKruskalIciEvRK21AdjMatrixUndirNetworkIT_T0_EEUlRK11KruskalEdgeIiESC_E_PSA_TnNS_9enable_ifIXntsr21__use_branchless_sortIS5_T1_EE5valueEiE4typeELi0EEEvSH_SH_SH_SH_SH_S5_, symObjAddr: 0x91D0, symBinAddr: 0x100010A14, symSize: 0x4C }
  - { offset: 0xDFEA, size: 0x8, addend: 0x0, symName: __ZNSt3__116__insertion_sortB8ne180100INS_17_ClassicAlgPolicyERZ19MiniSpanTreeKruskalIciEvRK21AdjMatrixUndirNetworkIT_T0_EEUlRK11KruskalEdgeIiESC_E_PSA_EEvT1_SG_S5_, symObjAddr: 0x921C, symBinAddr: 0x100010A60, symSize: 0x15C }
  - { offset: 0xE0B1, size: 0x8, addend: 0x0, symName: __ZNSt3__114__partial_sortB8ne180100INS_17_ClassicAlgPolicyERZ19MiniSpanTreeKruskalIciEvRK21AdjMatrixUndirNetworkIT_T0_EEUlRK11KruskalEdgeIiESC_E_PSA_SF_EET1_SG_SG_T2_RS5_, symObjAddr: 0x94A8, symBinAddr: 0x100010CEC, symSize: 0x90 }
  - { offset: 0xE139, size: 0x8, addend: 0x0, symName: __ZNSt3__17__sort3B8ne180100INS_17_ClassicAlgPolicyERZ19MiniSpanTreeKruskalIciEvRK21AdjMatrixUndirNetworkIT_T0_EEUlRK11KruskalEdgeIiESC_E_PSA_EEjT1_SG_SG_S5_, symObjAddr: 0x9538, symBinAddr: 0x100010D7C, symSize: 0x144 }
  - { offset: 0xE1B8, size: 0x8, addend: 0x0, symName: __ZNSt3__19iter_swapB8ne180100IP11KruskalEdgeIiES3_EEvT_T0_, symObjAddr: 0xA118, symBinAddr: 0x10001195C, symSize: 0x2C }
  - { offset: 0xE200, size: 0x8, addend: 0x0, symName: __ZNSt3__14swapB8ne180100I11KruskalEdgeIiEEENS_9enable_ifIXaasr21is_move_constructibleIT_EE5valuesr18is_move_assignableIS4_EE5valueEvE4typeERS4_S7_, symObjAddr: 0xA144, symBinAddr: 0x100011988, symSize: 0x54 }
  - { offset: 0xE251, size: 0x8, addend: 0x0, symName: __ZNSt3__17__sort4B8ne180100INS_17_ClassicAlgPolicyERZ19MiniSpanTreeKruskalIciEvRK21AdjMatrixUndirNetworkIT_T0_EEUlRK11KruskalEdgeIiESC_E_PSA_EEvT1_SG_SG_SG_S5_, symObjAddr: 0xA198, symBinAddr: 0x1000119DC, symSize: 0xB8 }
  - { offset: 0xE2CC, size: 0x8, addend: 0x0, symName: __ZNSt3__17__sort5B8ne180100INS_17_ClassicAlgPolicyERZ19MiniSpanTreeKruskalIciEvRK21AdjMatrixUndirNetworkIT_T0_EEUlRK11KruskalEdgeIiESC_E_PSA_EEvT1_SG_SG_SG_SG_S5_, symObjAddr: 0xA250, symBinAddr: 0x100011A94, symSize: 0xE8 }
  - { offset: 0xE355, size: 0x8, addend: 0x0, symName: __ZNSt3__123__debug_randomize_rangeB8ne180100INS_17_ClassicAlgPolicyEP11KruskalEdgeIiES4_EEvT0_T1_, symObjAddr: 0xA37C, symBinAddr: 0x100011BC0, symSize: 0x14 }
  - { offset: 0xE3A6, size: 0x8, addend: 0x0, symName: __ZNSt3__119__partial_sort_implB8ne180100INS_17_ClassicAlgPolicyERZ19MiniSpanTreeKruskalIciEvRK21AdjMatrixUndirNetworkIT_T0_EEUlRK11KruskalEdgeIiESC_E_PSA_SF_EET1_SG_SG_T2_OS5_, symObjAddr: 0xA390, symBinAddr: 0x100011BD4, symSize: 0x108 }
  - { offset: 0xE43C, size: 0x8, addend: 0x0, symName: __ZNSt3__111__make_heapB8ne180100INS_17_ClassicAlgPolicyERZ19MiniSpanTreeKruskalIciEvRK21AdjMatrixUndirNetworkIT_T0_EEUlRK11KruskalEdgeIiESC_E_PSA_EEvT1_SG_OS5_, symObjAddr: 0xA498, symBinAddr: 0x100011CDC, symSize: 0xB4 }
  - { offset: 0xE4DE, size: 0x8, addend: 0x0, symName: __ZNSt3__111__sort_heapB8ne180100INS_17_ClassicAlgPolicyERZ19MiniSpanTreeKruskalIciEvRK21AdjMatrixUndirNetworkIT_T0_EEUlRK11KruskalEdgeIiESC_E_PSA_EEvT1_SG_OS5_, symObjAddr: 0xA76C, symBinAddr: 0x100011FB0, symSize: 0xA4 }
  - { offset: 0xE580, size: 0x8, addend: 0x0, symName: __ZNSt3__110__pop_heapB8ne180100INS_17_ClassicAlgPolicyEZ19MiniSpanTreeKruskalIciEvRK21AdjMatrixUndirNetworkIT_T0_EEUlRK11KruskalEdgeIiESC_E_PSA_EEvT1_SF_RS5_NS_15iterator_traitsISF_E15difference_typeE, symObjAddr: 0xA810, symBinAddr: 0x100012054, symSize: 0x10C }
  - { offset: 0xE630, size: 0x8, addend: 0x0, symName: __ZNSt3__19__sift_upB8ne180100INS_17_ClassicAlgPolicyERZ19MiniSpanTreeKruskalIciEvRK21AdjMatrixUndirNetworkIT_T0_EEUlRK11KruskalEdgeIiESC_E_PSA_EEvT1_SG_OS5_NS_15iterator_traitsISG_E15difference_typeE, symObjAddr: 0xAA24, symBinAddr: 0x100012268, symSize: 0x138 }
  - { offset: 0xE6E0, size: 0x8, addend: 0x0, symName: __ZNSt3__122__populate_left_bitsetB8ne180100IRZ19MiniSpanTreeKruskalIciEvRK21AdjMatrixUndirNetworkIT_T0_EEUlRK11KruskalEdgeIiESB_E_PS9_S9_EEvS4_S3_RT1_Ry, symObjAddr: 0xAB5C, symBinAddr: 0x1000123A0, symSize: 0xA4 }
  - { offset: 0xE79B, size: 0x8, addend: 0x0, symName: __ZNSt3__123__populate_right_bitsetB8ne180100IRZ19MiniSpanTreeKruskalIciEvRK21AdjMatrixUndirNetworkIT_T0_EEUlRK11KruskalEdgeIiESB_E_PS9_S9_EEvS4_S3_RT1_Ry, symObjAddr: 0xAC00, symBinAddr: 0x100012444, symSize: 0x98 }
  - { offset: 0xE856, size: 0x8, addend: 0x0, symName: __ZNSt3__117__swap_bitmap_posB8ne180100INS_17_ClassicAlgPolicyEP11KruskalEdgeIiEEEvT0_S5_RyS6_, symObjAddr: 0xAC98, symBinAddr: 0x1000124DC, symSize: 0xFC }
  - { offset: 0xE8F7, size: 0x8, addend: 0x0, symName: __ZNSt3__133__bitset_partition_partial_blocksB8ne180100INS_17_ClassicAlgPolicyERZ19MiniSpanTreeKruskalIciEvRK21AdjMatrixUndirNetworkIT_T0_EEUlRK11KruskalEdgeIiESC_E_PSA_SA_EEvRT1_SH_S5_RT2_RySK_, symObjAddr: 0xAD94, symBinAddr: 0x1000125D8, symSize: 0x2AC }
  - { offset: 0xEA78, size: 0x8, addend: 0x0, symName: __ZNSt3__19make_pairB8ne180100IRP11KruskalEdgeIiERbEENS_4pairINS_18__unwrap_ref_decayIT_E4typeENS7_IT0_E4typeEEEOS8_OSB_, symObjAddr: 0xB200, symBinAddr: 0x100012A44, symSize: 0x38 }
  - { offset: 0xEAC7, size: 0x8, addend: 0x0, symName: __ZNSt3__112__libcpp_ctzB8ne180100Ey, symObjAddr: 0xB238, symBinAddr: 0x100012A7C, symSize: 0x20 }
  - { offset: 0xEAF3, size: 0x8, addend: 0x0, symName: __ZNSt3__113__libcpp_blsrB8ne180100Ey, symObjAddr: 0xB258, symBinAddr: 0x100012A9C, symSize: 0x2C }
  - { offset: 0xEB1F, size: 0x8, addend: 0x0, symName: __ZNSt3__112__libcpp_clzB8ne180100Ey, symObjAddr: 0xB2B8, symBinAddr: 0x100012AFC, symSize: 0x1C }
  - { offset: 0xEC72, size: 0x8, addend: 0x0, symName: __ZNSt3__112__to_addressB8ne180100INS_11__wrap_iterIP11KruskalEdgeIiEEEvEEu7__decayIDTclsr19__to_address_helperIT_EE6__callclsr3stdE7declvalIRKS6_EEEEES8_, symObjAddr: 0xB370, symBinAddr: 0x100012BB4, symSize: 0x24 }
  - { offset: 0xED4D, size: 0x8, addend: 0x0, symName: __ZNSt3__1eqB8ne180100IP11KruskalEdgeIiEEEbRKNS_11__wrap_iterIT_EES8_, symObjAddr: 0xB550, symBinAddr: 0x100012D94, symSize: 0x44 }
  - { offset: 0xFF98, size: 0x8, addend: 0x0, symName: __ZSt28__throw_bad_array_new_lengthB8ne180100v, symObjAddr: 0x204C, symBinAddr: 0x100009890, symSize: 0x34 }
  - { offset: 0x10A10, size: 0x8, addend: 0x0, symName: __ZNSt3__16vectorI11KruskalEdgeIiENS_9allocatorIS2_EEE26__swap_out_circular_bufferERNS_14__split_bufferIS2_RS4_EE, symObjAddr: 0x7A2C, symBinAddr: 0x10000F270, symSize: 0x110 }
  - { offset: 0x10A8E, size: 0x8, addend: 0x0, symName: _main, symObjAddr: 0x0, symBinAddr: 0x100007844, symSize: 0x248 }
  - { offset: 0x10AC8, size: 0x8, addend: 0x0, symName: __ZNSt3__16vectorIcNS_9allocatorIcEEEC1B8ne180100ESt16initializer_listIcE, symObjAddr: 0x248, symBinAddr: 0x100007A8C, symSize: 0x3C }
  - { offset: 0x10B03, size: 0x8, addend: 0x0, symName: __ZN21AdjMatrixUndirNetworkIciEC1ERKNSt3__16vectorIcNS1_9allocatorIcEEEE, symObjAddr: 0x284, symBinAddr: 0x100007AC8, symSize: 0x34 }
  - { offset: 0x10B3B, size: 0x8, addend: 0x0, symName: __ZN21AdjMatrixUndirNetworkIciE10InsertEdgeEiii, symObjAddr: 0x2B8, symBinAddr: 0x100007AFC, symSize: 0x1A0 }
  - { offset: 0x10B8A, size: 0x8, addend: 0x0, symName: __Z16MiniSpanTreePrimIciEvRK21AdjMatrixUndirNetworkIT_T0_Ei, symObjAddr: 0x4A0, symBinAddr: 0x100007CE4, symSize: 0x404 }
  - { offset: 0x10C58, size: 0x8, addend: 0x0, symName: __Z19MiniSpanTreeKruskalIciEvRK21AdjMatrixUndirNetworkIT_T0_E, symObjAddr: 0x8A4, symBinAddr: 0x1000080E8, symSize: 0x31C }
  - { offset: 0x10DBF, size: 0x8, addend: 0x0, symName: __ZN21AdjMatrixUndirNetworkIciED1Ev, symObjAddr: 0xBC0, symBinAddr: 0x100008404, symSize: 0x2C }
  - { offset: 0x10DEB, size: 0x8, addend: 0x0, symName: __ZNSt3__16vectorIcNS_9allocatorIcEEED1B8ne180100Ev, symObjAddr: 0xBEC, symBinAddr: 0x100008430, symSize: 0x2C }
  - { offset: 0x10E15, size: 0x8, addend: 0x0, symName: __ZN21AdjMatrixUndirNetworkIciED2Ev, symObjAddr: 0xC18, symBinAddr: 0x10000845C, symSize: 0x48 }
  - { offset: 0x10E41, size: 0x8, addend: 0x0, symName: __ZNSt3__16vectorIbNS_9allocatorIbEEED1B8ne180100Ev, symObjAddr: 0xC60, symBinAddr: 0x1000084A4, symSize: 0x2C }
  - { offset: 0x10E6B, size: 0x8, addend: 0x0, symName: __ZNSt3__16vectorINS0_IiNS_9allocatorIiEEEENS1_IS3_EEED1B8ne180100Ev, symObjAddr: 0xC8C, symBinAddr: 0x1000084D0, symSize: 0x2C }
  - { offset: 0x10E95, size: 0x8, addend: 0x0, symName: __ZNSt3__16vectorIbNS_9allocatorIbEEED2B8ne180100Ev, symObjAddr: 0xCB8, symBinAddr: 0x1000084FC, symSize: 0x44 }
  - { offset: 0x10EBF, size: 0x8, addend: 0x0, symName: __ZNSt3__16vectorIbNS_9allocatorIbEEE16__destroy_vectorC1B8ne180100ERS3_, symObjAddr: 0xCFC, symBinAddr: 0x100008540, symSize: 0x34 }
  - { offset: 0x10EF8, size: 0x8, addend: 0x0, symName: __ZNSt3__16vectorIbNS_9allocatorIbEEE16__destroy_vectorclB8ne180100Ev, symObjAddr: 0xD40, symBinAddr: 0x100008584, symSize: 0x74 }
  - { offset: 0x10F1E, size: 0x8, addend: 0x0, symName: __ZNSt3__16vectorIbNS_9allocatorIbEEE16__destroy_vectorC2B8ne180100ERS3_, symObjAddr: 0xDB4, symBinAddr: 0x1000085F8, symSize: 0x20 }
  - { offset: 0x10F57, size: 0x8, addend: 0x0, symName: __ZNSt3__116allocator_traitsINS_9allocatorImEEE10deallocateB8ne180100ERS2_Pmm, symObjAddr: 0xDD4, symBinAddr: 0x100008618, symSize: 0x34 }
  - { offset: 0x10F99, size: 0x8, addend: 0x0, symName: __ZNSt3__16vectorIbNS_9allocatorIbEEE7__allocB8ne180100Ev, symObjAddr: 0xE08, symBinAddr: 0x10000864C, symSize: 0x28 }
  - { offset: 0x10FBF, size: 0x8, addend: 0x0, symName: __ZNSt3__16vectorIbNS_9allocatorIbEEE5__capB8ne180100Ev, symObjAddr: 0xE30, symBinAddr: 0x100008674, symSize: 0x28 }
  - { offset: 0x10FE5, size: 0x8, addend: 0x0, symName: __ZNSt3__19allocatorImE10deallocateB8ne180100EPmm, symObjAddr: 0xE58, symBinAddr: 0x10000869C, symSize: 0x40 }
  - { offset: 0x11027, size: 0x8, addend: 0x0, symName: __ZNSt3__117__compressed_pairImNS_9allocatorImEEE6secondB8ne180100Ev, symObjAddr: 0xFBC, symBinAddr: 0x100008800, symSize: 0x24 }
  - { offset: 0x1104D, size: 0x8, addend: 0x0, symName: __ZNSt3__122__compressed_pair_elemINS_9allocatorImEELi1ELb1EE5__getB8ne180100Ev, symObjAddr: 0xFE0, symBinAddr: 0x100008824, symSize: 0x14 }
  - { offset: 0x11073, size: 0x8, addend: 0x0, symName: __ZNSt3__117__compressed_pairImNS_9allocatorImEEE5firstB8ne180100Ev, symObjAddr: 0xFF4, symBinAddr: 0x100008838, symSize: 0x24 }
  - { offset: 0x11099, size: 0x8, addend: 0x0, symName: __ZNSt3__122__compressed_pair_elemImLi0ELb0EE5__getB8ne180100Ev, symObjAddr: 0x1018, symBinAddr: 0x10000885C, symSize: 0x14 }
  - { offset: 0x110BF, size: 0x8, addend: 0x0, symName: __ZNSt3__16vectorINS0_IiNS_9allocatorIiEEEENS1_IS3_EEED2B8ne180100Ev, symObjAddr: 0x102C, symBinAddr: 0x100008870, symSize: 0x44 }
  - { offset: 0x110E9, size: 0x8, addend: 0x0, symName: __ZNSt3__16vectorINS0_IiNS_9allocatorIiEEEENS1_IS3_EEE16__destroy_vectorC1B8ne180100ERS5_, symObjAddr: 0x1070, symBinAddr: 0x1000088B4, symSize: 0x34 }
  - { offset: 0x11122, size: 0x8, addend: 0x0, symName: __ZNSt3__16vectorINS0_IiNS_9allocatorIiEEEENS1_IS3_EEE16__destroy_vectorclB8ne180100Ev, symObjAddr: 0x10A4, symBinAddr: 0x1000088E8, symSize: 0x88 }
  - { offset: 0x11148, size: 0x8, addend: 0x0, symName: __ZNSt3__16vectorINS0_IiNS_9allocatorIiEEEENS1_IS3_EEE16__destroy_vectorC2B8ne180100ERS5_, symObjAddr: 0x112C, symBinAddr: 0x100008970, symSize: 0x20 }
  - { offset: 0x11181, size: 0x8, addend: 0x0, symName: __ZNSt3__16vectorINS0_IiNS_9allocatorIiEEEENS1_IS3_EEE7__clearB8ne180100Ev, symObjAddr: 0x114C, symBinAddr: 0x100008990, symSize: 0x28 }
  - { offset: 0x111A7, size: 0x8, addend: 0x0, symName: __ZNKSt3__16vectorINS0_IiNS_9allocatorIiEEEENS1_IS3_EEE17__annotate_deleteB8ne180100Ev, symObjAddr: 0x1174, symBinAddr: 0x1000089B8, symSize: 0x10 }
  - { offset: 0x111CD, size: 0x8, addend: 0x0, symName: __ZNSt3__116allocator_traitsINS_9allocatorINS_6vectorIiNS1_IiEEEEEEE10deallocateB8ne180100ERS5_PS4_m, symObjAddr: 0x1184, symBinAddr: 0x1000089C8, symSize: 0x34 }
  - { offset: 0x1120F, size: 0x8, addend: 0x0, symName: __ZNSt3__16vectorINS0_IiNS_9allocatorIiEEEENS1_IS3_EEE7__allocB8ne180100Ev, symObjAddr: 0x11B8, symBinAddr: 0x1000089FC, symSize: 0x28 }
  - { offset: 0x11235, size: 0x8, addend: 0x0, symName: __ZNKSt3__16vectorINS0_IiNS_9allocatorIiEEEENS1_IS3_EEE8capacityB8ne180100Ev, symObjAddr: 0x11E0, symBinAddr: 0x100008A24, symSize: 0x40 }
  - { offset: 0x1125B, size: 0x8, addend: 0x0, symName: __ZNSt3__16vectorINS0_IiNS_9allocatorIiEEEENS1_IS3_EEE22__base_destruct_at_endB8ne180100EPS3_, symObjAddr: 0x1220, symBinAddr: 0x100008A64, symSize: 0x88 }
  - { offset: 0x1129F, size: 0x8, addend: 0x0, symName: __ZNSt3__116allocator_traitsINS_9allocatorINS_6vectorIiNS1_IiEEEEEEE7destroyB8ne180100IS4_vEEvRS5_PT_, symObjAddr: 0x12A8, symBinAddr: 0x100008AEC, symSize: 0x2C }
  - { offset: 0x112DC, size: 0x8, addend: 0x0, symName: __ZNSt3__19allocatorINS_6vectorIiNS0_IiEEEEE7destroyB8ne180100EPS3_, symObjAddr: 0x12E8, symBinAddr: 0x100008B2C, symSize: 0x28 }
  - { offset: 0x11310, size: 0x8, addend: 0x0, symName: __ZNSt3__16vectorIiNS_9allocatorIiEEED1B8ne180100Ev, symObjAddr: 0x1310, symBinAddr: 0x100008B54, symSize: 0x2C }
  - { offset: 0x1133A, size: 0x8, addend: 0x0, symName: __ZNSt3__16vectorIiNS_9allocatorIiEEED2B8ne180100Ev, symObjAddr: 0x133C, symBinAddr: 0x100008B80, symSize: 0x44 }
  - { offset: 0x11364, size: 0x8, addend: 0x0, symName: __ZNSt3__16vectorIiNS_9allocatorIiEEE16__destroy_vectorC1B8ne180100ERS3_, symObjAddr: 0x1380, symBinAddr: 0x100008BC4, symSize: 0x34 }
  - { offset: 0x1139D, size: 0x8, addend: 0x0, symName: __ZNSt3__16vectorIiNS_9allocatorIiEEE16__destroy_vectorclB8ne180100Ev, symObjAddr: 0x13B4, symBinAddr: 0x100008BF8, symSize: 0x88 }
  - { offset: 0x113C3, size: 0x8, addend: 0x0, symName: __ZNSt3__16vectorIiNS_9allocatorIiEEE16__destroy_vectorC2B8ne180100ERS3_, symObjAddr: 0x143C, symBinAddr: 0x100008C80, symSize: 0x20 }
  - { offset: 0x113FC, size: 0x8, addend: 0x0, symName: __ZNSt3__16vectorIiNS_9allocatorIiEEE7__clearB8ne180100Ev, symObjAddr: 0x145C, symBinAddr: 0x100008CA0, symSize: 0x28 }
  - { offset: 0x11422, size: 0x8, addend: 0x0, symName: __ZNKSt3__16vectorIiNS_9allocatorIiEEE17__annotate_deleteB8ne180100Ev, symObjAddr: 0x1484, symBinAddr: 0x100008CC8, symSize: 0x10 }
  - { offset: 0x11448, size: 0x8, addend: 0x0, symName: __ZNSt3__116allocator_traitsINS_9allocatorIiEEE10deallocateB8ne180100ERS2_Pim, symObjAddr: 0x1494, symBinAddr: 0x100008CD8, symSize: 0x34 }
  - { offset: 0x1148A, size: 0x8, addend: 0x0, symName: __ZNSt3__16vectorIiNS_9allocatorIiEEE7__allocB8ne180100Ev, symObjAddr: 0x14C8, symBinAddr: 0x100008D0C, symSize: 0x28 }
  - { offset: 0x114B0, size: 0x8, addend: 0x0, symName: __ZNKSt3__16vectorIiNS_9allocatorIiEEE8capacityB8ne180100Ev, symObjAddr: 0x14F0, symBinAddr: 0x100008D34, symSize: 0x40 }
  - { offset: 0x114D6, size: 0x8, addend: 0x0, symName: __ZNSt3__16vectorIiNS_9allocatorIiEEE22__base_destruct_at_endB8ne180100EPi, symObjAddr: 0x1530, symBinAddr: 0x100008D74, symSize: 0x88 }
  - { offset: 0x1151A, size: 0x8, addend: 0x0, symName: __ZNSt3__116allocator_traitsINS_9allocatorIiEEE7destroyB8ne180100IivEEvRS2_PT_, symObjAddr: 0x15B8, symBinAddr: 0x100008DFC, symSize: 0x2C }
  - { offset: 0x11557, size: 0x8, addend: 0x0, symName: __ZNSt3__19allocatorIiE7destroyB8ne180100EPi, symObjAddr: 0x15F8, symBinAddr: 0x100008E3C, symSize: 0x14 }
  - { offset: 0x1158B, size: 0x8, addend: 0x0, symName: __ZNSt3__19allocatorIiE10deallocateB8ne180100EPim, symObjAddr: 0x160C, symBinAddr: 0x100008E50, symSize: 0x40 }
  - { offset: 0x115CD, size: 0x8, addend: 0x0, symName: __ZNSt3__117__compressed_pairIPiNS_9allocatorIiEEE6secondB8ne180100Ev, symObjAddr: 0x164C, symBinAddr: 0x100008E90, symSize: 0x24 }
  - { offset: 0x115F3, size: 0x8, addend: 0x0, symName: __ZNSt3__122__compressed_pair_elemINS_9allocatorIiEELi1ELb1EE5__getB8ne180100Ev, symObjAddr: 0x1670, symBinAddr: 0x100008EB4, symSize: 0x14 }
  - { offset: 0x11619, size: 0x8, addend: 0x0, symName: __ZNKSt3__16vectorIiNS_9allocatorIiEEE9__end_capB8ne180100Ev, symObjAddr: 0x1684, symBinAddr: 0x100008EC8, symSize: 0x28 }
  - { offset: 0x1163F, size: 0x8, addend: 0x0, symName: __ZNKSt3__117__compressed_pairIPiNS_9allocatorIiEEE5firstB8ne180100Ev, symObjAddr: 0x16AC, symBinAddr: 0x100008EF0, symSize: 0x24 }
  - { offset: 0x11665, size: 0x8, addend: 0x0, symName: __ZNKSt3__122__compressed_pair_elemIPiLi0ELb0EE5__getB8ne180100Ev, symObjAddr: 0x16D0, symBinAddr: 0x100008F14, symSize: 0x14 }
  - { offset: 0x1168B, size: 0x8, addend: 0x0, symName: __ZNSt3__19allocatorINS_6vectorIiNS0_IiEEEEE10deallocateB8ne180100EPS3_m, symObjAddr: 0x16E4, symBinAddr: 0x100008F28, symSize: 0x44 }
  - { offset: 0x116CD, size: 0x8, addend: 0x0, symName: __ZNSt3__117__compressed_pairIPNS_6vectorIiNS_9allocatorIiEEEENS2_IS4_EEE6secondB8ne180100Ev, symObjAddr: 0x1728, symBinAddr: 0x100008F6C, symSize: 0x24 }
  - { offset: 0x116F3, size: 0x8, addend: 0x0, symName: __ZNSt3__122__compressed_pair_elemINS_9allocatorINS_6vectorIiNS1_IiEEEEEELi1ELb1EE5__getB8ne180100Ev, symObjAddr: 0x174C, symBinAddr: 0x100008F90, symSize: 0x14 }
  - { offset: 0x11719, size: 0x8, addend: 0x0, symName: __ZNKSt3__16vectorINS0_IiNS_9allocatorIiEEEENS1_IS3_EEE9__end_capB8ne180100Ev, symObjAddr: 0x1760, symBinAddr: 0x100008FA4, symSize: 0x28 }
  - { offset: 0x1173F, size: 0x8, addend: 0x0, symName: __ZNKSt3__117__compressed_pairIPNS_6vectorIiNS_9allocatorIiEEEENS2_IS4_EEE5firstB8ne180100Ev, symObjAddr: 0x1788, symBinAddr: 0x100008FCC, symSize: 0x24 }
  - { offset: 0x11765, size: 0x8, addend: 0x0, symName: __ZNKSt3__122__compressed_pair_elemIPNS_6vectorIiNS_9allocatorIiEEEELi0ELb0EE5__getB8ne180100Ev, symObjAddr: 0x17AC, symBinAddr: 0x100008FF0, symSize: 0x14 }
  - { offset: 0x1178B, size: 0x8, addend: 0x0, symName: __ZNSt3__16vectorIcNS_9allocatorIcEEEC2B8ne180100ESt16initializer_listIcE, symObjAddr: 0x17C0, symBinAddr: 0x100009004, symSize: 0x11C }
  - { offset: 0x117E5, size: 0x8, addend: 0x0, symName: __ZNSt3__117__compressed_pairIPcNS_9allocatorIcEEEC1B8ne180100IDnNS_18__default_init_tagEEEOT_OT0_, symObjAddr: 0x18DC, symBinAddr: 0x100009120, symSize: 0x3C }
  - { offset: 0x1183D, size: 0x8, addend: 0x0, symName: __ZNSt3__16vectorIcNS_9allocatorIcEEE16__destroy_vectorC1B8ne180100ERS3_, symObjAddr: 0x1958, symBinAddr: 0x10000919C, symSize: 0x34 }
  - { offset: 0x11876, size: 0x8, addend: 0x0, symName: __ZNKSt16initializer_listIcE4sizeB8ne180100Ev, symObjAddr: 0x198C, symBinAddr: 0x1000091D0, symSize: 0x18 }
  - { offset: 0x1189C, size: 0x8, addend: 0x0, symName: __ZNSt3__16vectorIcNS_9allocatorIcEEE11__vallocateB8ne180100Em, symObjAddr: 0x19A4, symBinAddr: 0x1000091E8, symSize: 0xA8 }
  - { offset: 0x118E0, size: 0x8, addend: 0x0, symName: __ZNSt3__16vectorIcNS_9allocatorIcEEE18__construct_at_endIPKcS6_EEvT_T0_m, symObjAddr: 0x1A4C, symBinAddr: 0x100009290, symSize: 0x8C }
  - { offset: 0x11954, size: 0x8, addend: 0x0, symName: __ZNKSt16initializer_listIcE5beginB8ne180100Ev, symObjAddr: 0x1AD8, symBinAddr: 0x10000931C, symSize: 0x18 }
  - { offset: 0x1197A, size: 0x8, addend: 0x0, symName: __ZNKSt16initializer_listIcE3endB8ne180100Ev, symObjAddr: 0x1AF0, symBinAddr: 0x100009334, symSize: 0x20 }
  - { offset: 0x119A0, size: 0x8, addend: 0x0, symName: __ZNSt3__128__exception_guard_exceptionsINS_6vectorIcNS_9allocatorIcEEE16__destroy_vectorEE10__completeB8ne180100Ev, symObjAddr: 0x1B10, symBinAddr: 0x100009354, symSize: 0x1C }
  - { offset: 0x119C6, size: 0x8, addend: 0x0, symName: __ZNSt3__128__exception_guard_exceptionsINS_6vectorIcNS_9allocatorIcEEE16__destroy_vectorEED1B8ne180100Ev, symObjAddr: 0x1B2C, symBinAddr: 0x100009370, symSize: 0x2C }
  - { offset: 0x119F0, size: 0x8, addend: 0x0, symName: __ZNSt3__117__compressed_pairIPcNS_9allocatorIcEEEC2B8ne180100IDnNS_18__default_init_tagEEEOT_OT0_, symObjAddr: 0x1B58, symBinAddr: 0x10000939C, symSize: 0x40 }
  - { offset: 0x11A48, size: 0x8, addend: 0x0, symName: __ZNSt3__122__compressed_pair_elemIPcLi0ELb0EEC2B8ne180100IDnvEEOT_, symObjAddr: 0x1B98, symBinAddr: 0x1000093DC, symSize: 0x1C }
  - { offset: 0x11A8A, size: 0x8, addend: 0x0, symName: __ZNSt3__122__compressed_pair_elemINS_9allocatorIcEELi1ELb1EEC2B8ne180100ENS_18__default_init_tagE, symObjAddr: 0x1BB4, symBinAddr: 0x1000093F8, symSize: 0x2C }
  - { offset: 0x11ABF, size: 0x8, addend: 0x0, symName: __ZNSt3__19allocatorIcEC2B8ne180100Ev, symObjAddr: 0x1BE0, symBinAddr: 0x100009424, symSize: 0x2C }
  - { offset: 0x11AE9, size: 0x8, addend: 0x0, symName: __ZNSt3__116__non_trivial_ifILb1ENS_9allocatorIcEEEC2B8ne180100Ev, symObjAddr: 0x1C0C, symBinAddr: 0x100009450, symSize: 0x14 }
  - { offset: 0x11B13, size: 0x8, addend: 0x0, symName: __ZNSt3__128__exception_guard_exceptionsINS_6vectorIcNS_9allocatorIcEEE16__destroy_vectorEEC1B8ne180100ES5_, symObjAddr: 0x1C20, symBinAddr: 0x100009464, symSize: 0x34 }
  - { offset: 0x11B4B, size: 0x8, addend: 0x0, symName: __ZNSt3__128__exception_guard_exceptionsINS_6vectorIcNS_9allocatorIcEEE16__destroy_vectorEEC2B8ne180100ES5_, symObjAddr: 0x1C54, symBinAddr: 0x100009498, symSize: 0x24 }
  - { offset: 0x11B83, size: 0x8, addend: 0x0, symName: __ZNSt3__16vectorIcNS_9allocatorIcEEE16__destroy_vectorC2B8ne180100ERS3_, symObjAddr: 0x1C78, symBinAddr: 0x1000094BC, symSize: 0x20 }
  - { offset: 0x11BBC, size: 0x8, addend: 0x0, symName: __ZNKSt3__16vectorIcNS_9allocatorIcEEE8max_sizeEv, symObjAddr: 0x1C98, symBinAddr: 0x1000094DC, symSize: 0x60 }
  - { offset: 0x11BE4, size: 0x8, addend: 0x0, symName: __ZNKSt3__16vectorIcNS_9allocatorIcEEE20__throw_length_errorB8ne180100Ev, symObjAddr: 0x1CF8, symBinAddr: 0x10000953C, symSize: 0x1C }
  - { offset: 0x11C0A, size: 0x8, addend: 0x0, symName: __ZNSt3__16vectorIcNS_9allocatorIcEEE7__allocB8ne180100Ev, symObjAddr: 0x1D54, symBinAddr: 0x100009598, symSize: 0x28 }
  - { offset: 0x11C30, size: 0x8, addend: 0x0, symName: __ZNSt3__16vectorIcNS_9allocatorIcEEE9__end_capB8ne180100Ev, symObjAddr: 0x1D7C, symBinAddr: 0x1000095C0, symSize: 0x28 }
  - { offset: 0x11C56, size: 0x8, addend: 0x0, symName: __ZNKSt3__16vectorIcNS_9allocatorIcEEE14__annotate_newB8ne180100Em, symObjAddr: 0x1DA4, symBinAddr: 0x1000095E8, symSize: 0x14 }
  - { offset: 0x11C95, size: 0x8, addend: 0x0, symName: __ZNSt3__116allocator_traitsINS_9allocatorIcEEE8max_sizeB8ne180100IS2_vEEmRKS2_, symObjAddr: 0x1DE4, symBinAddr: 0x100009628, symSize: 0x24 }
  - { offset: 0x11CC3, size: 0x8, addend: 0x0, symName: __ZNKSt3__16vectorIcNS_9allocatorIcEEE7__allocB8ne180100Ev, symObjAddr: 0x1E08, symBinAddr: 0x10000964C, symSize: 0x28 }
  - { offset: 0x11CE9, size: 0x8, addend: 0x0, symName: __ZNSt3__114numeric_limitsIlE3maxB8ne180100Ev, symObjAddr: 0x1E30, symBinAddr: 0x100009674, symSize: 0x14 }
  - { offset: 0x11D07, size: 0x8, addend: 0x0, symName: __ZNKSt3__16__lessIvvEclB8ne180100ImmEEbRKT_RKT0_, symObjAddr: 0x1E98, symBinAddr: 0x1000096DC, symSize: 0x30 }
  - { offset: 0x11D5B, size: 0x8, addend: 0x0, symName: __ZNKSt3__19allocatorIcE8max_sizeB8ne180100Ev, symObjAddr: 0x1EC8, symBinAddr: 0x10000970C, symSize: 0x14 }
  - { offset: 0x11D81, size: 0x8, addend: 0x0, symName: __ZNKSt3__117__compressed_pairIPcNS_9allocatorIcEEE6secondB8ne180100Ev, symObjAddr: 0x1EDC, symBinAddr: 0x100009720, symSize: 0x24 }
  - { offset: 0x11DA7, size: 0x8, addend: 0x0, symName: __ZNKSt3__122__compressed_pair_elemINS_9allocatorIcEELi1ELb1EE5__getB8ne180100Ev, symObjAddr: 0x1F00, symBinAddr: 0x100009744, symSize: 0x14 }
  - { offset: 0x11DCD, size: 0x8, addend: 0x0, symName: __ZNSt3__123__libcpp_numeric_limitsIlLb1EE3maxB8ne180100Ev, symObjAddr: 0x1F14, symBinAddr: 0x100009758, symSize: 0x8 }
  - { offset: 0x11DE1, size: 0x8, addend: 0x0, symName: __ZNSt12length_errorC1B8ne180100EPKc, symObjAddr: 0x1F80, symBinAddr: 0x1000097C4, symSize: 0x34 }
  - { offset: 0x11E19, size: 0x8, addend: 0x0, symName: __ZNSt12length_errorC2B8ne180100EPKc, symObjAddr: 0x1FB4, symBinAddr: 0x1000097F8, symSize: 0x44 }
  - { offset: 0x11E51, size: 0x8, addend: 0x0, symName: __ZNSt3__19allocatorIcE8allocateB8ne180100Em, symObjAddr: 0x1FF8, symBinAddr: 0x10000983C, symSize: 0x54 }
  - { offset: 0x11E85, size: 0x8, addend: 0x0, symName: __ZNSt3__117__compressed_pairIPcNS_9allocatorIcEEE6secondB8ne180100Ev, symObjAddr: 0x2130, symBinAddr: 0x100009974, symSize: 0x24 }
  - { offset: 0x11EAB, size: 0x8, addend: 0x0, symName: __ZNSt3__122__compressed_pair_elemINS_9allocatorIcEELi1ELb1EE5__getB8ne180100Ev, symObjAddr: 0x2154, symBinAddr: 0x100009998, symSize: 0x14 }
  - { offset: 0x11ED1, size: 0x8, addend: 0x0, symName: __ZNSt3__117__compressed_pairIPcNS_9allocatorIcEEE5firstB8ne180100Ev, symObjAddr: 0x2168, symBinAddr: 0x1000099AC, symSize: 0x24 }
  - { offset: 0x11EF7, size: 0x8, addend: 0x0, symName: __ZNSt3__122__compressed_pair_elemIPcLi0ELb0EE5__getB8ne180100Ev, symObjAddr: 0x218C, symBinAddr: 0x1000099D0, symSize: 0x14 }
  - { offset: 0x11F36, size: 0x8, addend: 0x0, symName: __ZNSt3__16vectorIcNS_9allocatorIcEEE21_ConstructTransactionC1B8ne180100ERS3_m, symObjAddr: 0x21A0, symBinAddr: 0x1000099E4, symSize: 0x3C }
  - { offset: 0x11F7E, size: 0x8, addend: 0x0, symName: __ZNSt3__16vectorIcNS_9allocatorIcEEE21_ConstructTransactionD1B8ne180100Ev, symObjAddr: 0x225C, symBinAddr: 0x100009AA0, symSize: 0x2C }
  - { offset: 0x11FA8, size: 0x8, addend: 0x0, symName: __ZNSt3__16vectorIcNS_9allocatorIcEEE21_ConstructTransactionC2B8ne180100ERS3_m, symObjAddr: 0x2288, symBinAddr: 0x100009ACC, symSize: 0x44 }
  - { offset: 0x1200E, size: 0x8, addend: 0x0, symName: __ZNSt3__14pairIPKcS2_EC1B8ne180100IS2_S2_TnNS_9enable_ifIXclsr10_CheckArgsE17__enable_implicitIT_T0_EEEiE4typeELi0EEEOS6_OS7_, symObjAddr: 0x2420, symBinAddr: 0x100009C64, symSize: 0x3C }
  - { offset: 0x1206C, size: 0x8, addend: 0x0, symName: __ZNSt3__14pairIPKcS2_EC2B8ne180100IS2_S2_TnNS_9enable_ifIXclsr10_CheckArgsE17__enable_implicitIT_T0_EEEiE4typeELi0EEEOS6_OS7_, symObjAddr: 0x245C, symBinAddr: 0x100009CA0, symSize: 0x34 }
  - { offset: 0x120CA, size: 0x8, addend: 0x0, symName: __ZNSt3__118__unwrap_iter_implIPKcLb1EE8__unwrapB8ne180100ES2_, symObjAddr: 0x2490, symBinAddr: 0x100009CD4, symSize: 0x24 }
  - { offset: 0x12110, size: 0x8, addend: 0x0, symName: __ZNKSt3__114__copy_trivialclB8ne180100IKccTnNS_9enable_ifIXsr38__can_lower_copy_assignment_to_memmoveIT_T0_EE5valueEiE4typeELi0EEENS_4pairIPS4_PS5_EES9_S9_SA_, symObjAddr: 0x2644, symBinAddr: 0x100009E88, symSize: 0x48 }
  - { offset: 0x12182, size: 0x8, addend: 0x0, symName: __ZNSt3__14pairIPKcPcEC1B8ne180100IRS2_S3_TnNS_9enable_ifIXclsr10_CheckArgsE17__enable_implicitIT_T0_EEEiE4typeELi0EEEOS8_OS9_, symObjAddr: 0x2800, symBinAddr: 0x10000A044, symSize: 0x3C }
  - { offset: 0x121E0, size: 0x8, addend: 0x0, symName: __ZNSt3__14pairIPKcPcEC2B8ne180100IRS2_S3_TnNS_9enable_ifIXclsr10_CheckArgsE17__enable_implicitIT_T0_EEEiE4typeELi0EEEOS8_OS9_, symObjAddr: 0x283C, symBinAddr: 0x10000A080, symSize: 0x34 }
  - { offset: 0x1223E, size: 0x8, addend: 0x0, symName: __ZNSt3__14pairIPKcPcEC1B8ne180100IS2_S3_TnNS_9enable_ifIXclsr10_CheckArgsE17__enable_implicitIT_T0_EEEiE4typeELi0EEEOS7_OS8_, symObjAddr: 0x2870, symBinAddr: 0x10000A0B4, symSize: 0x3C }
  - { offset: 0x1229C, size: 0x8, addend: 0x0, symName: __ZNSt3__14pairIPKcPcEC2B8ne180100IS2_S3_TnNS_9enable_ifIXclsr10_CheckArgsE17__enable_implicitIT_T0_EEEiE4typeELi0EEEOS7_OS8_, symObjAddr: 0x28AC, symBinAddr: 0x10000A0F0, symSize: 0x34 }
  - { offset: 0x122FA, size: 0x8, addend: 0x0, symName: __ZNSt3__118__unwrap_iter_implIPKcLb1EE8__rewrapB8ne180100ES2_S2_, symObjAddr: 0x291C, symBinAddr: 0x10000A160, symSize: 0x48 }
  - { offset: 0x1232B, size: 0x8, addend: 0x0, symName: __ZNSt3__118__unwrap_iter_implIPcLb1EE8__unwrapB8ne180100ES1_, symObjAddr: 0x2964, symBinAddr: 0x10000A1A8, symSize: 0x24 }
  - { offset: 0x1234E, size: 0x8, addend: 0x0, symName: __ZNSt3__118__unwrap_iter_implIPcLb1EE8__rewrapB8ne180100ES1_S1_, symObjAddr: 0x299C, symBinAddr: 0x10000A1E0, symSize: 0x48 }
  - { offset: 0x1237F, size: 0x8, addend: 0x0, symName: __ZNSt3__16vectorIcNS_9allocatorIcEEE21_ConstructTransactionD2B8ne180100Ev, symObjAddr: 0x29E4, symBinAddr: 0x10000A228, symSize: 0x20 }
  - { offset: 0x123A9, size: 0x8, addend: 0x0, symName: __ZNSt3__128__exception_guard_exceptionsINS_6vectorIcNS_9allocatorIcEEE16__destroy_vectorEED2B8ne180100Ev, symObjAddr: 0x2A04, symBinAddr: 0x10000A248, symSize: 0x50 }
  - { offset: 0x123D3, size: 0x8, addend: 0x0, symName: __ZNSt3__16vectorIcNS_9allocatorIcEEE16__destroy_vectorclB8ne180100Ev, symObjAddr: 0x2A54, symBinAddr: 0x10000A298, symSize: 0x88 }
  - { offset: 0x123F9, size: 0x8, addend: 0x0, symName: __ZNSt3__16vectorIcNS_9allocatorIcEEE7__clearB8ne180100Ev, symObjAddr: 0x2ADC, symBinAddr: 0x10000A320, symSize: 0x28 }
  - { offset: 0x1241F, size: 0x8, addend: 0x0, symName: __ZNKSt3__16vectorIcNS_9allocatorIcEEE17__annotate_deleteB8ne180100Ev, symObjAddr: 0x2B04, symBinAddr: 0x10000A348, symSize: 0x10 }
  - { offset: 0x12445, size: 0x8, addend: 0x0, symName: __ZNSt3__116allocator_traitsINS_9allocatorIcEEE10deallocateB8ne180100ERS2_Pcm, symObjAddr: 0x2B14, symBinAddr: 0x10000A358, symSize: 0x34 }
  - { offset: 0x12487, size: 0x8, addend: 0x0, symName: __ZNKSt3__16vectorIcNS_9allocatorIcEEE8capacityB8ne180100Ev, symObjAddr: 0x2B48, symBinAddr: 0x10000A38C, symSize: 0x38 }
  - { offset: 0x124AD, size: 0x8, addend: 0x0, symName: __ZNSt3__16vectorIcNS_9allocatorIcEEE22__base_destruct_at_endB8ne180100EPc, symObjAddr: 0x2B80, symBinAddr: 0x10000A3C4, symSize: 0x88 }
  - { offset: 0x124F1, size: 0x8, addend: 0x0, symName: __ZNSt3__116allocator_traitsINS_9allocatorIcEEE7destroyB8ne180100IcvEEvRS2_PT_, symObjAddr: 0x2C08, symBinAddr: 0x10000A44C, symSize: 0x2C }
  - { offset: 0x1252E, size: 0x8, addend: 0x0, symName: __ZNSt3__19allocatorIcE7destroyB8ne180100EPc, symObjAddr: 0x2C34, symBinAddr: 0x10000A478, symSize: 0x14 }
  - { offset: 0x12562, size: 0x8, addend: 0x0, symName: __ZNSt3__19allocatorIcE10deallocateB8ne180100EPcm, symObjAddr: 0x2C48, symBinAddr: 0x10000A48C, symSize: 0x40 }
  - { offset: 0x125A4, size: 0x8, addend: 0x0, symName: __ZNKSt3__16vectorIcNS_9allocatorIcEEE9__end_capB8ne180100Ev, symObjAddr: 0x2C88, symBinAddr: 0x10000A4CC, symSize: 0x28 }
  - { offset: 0x125CA, size: 0x8, addend: 0x0, symName: __ZNKSt3__117__compressed_pairIPcNS_9allocatorIcEEE5firstB8ne180100Ev, symObjAddr: 0x2CB0, symBinAddr: 0x10000A4F4, symSize: 0x24 }
  - { offset: 0x125F0, size: 0x8, addend: 0x0, symName: __ZNKSt3__122__compressed_pair_elemIPcLi0ELb0EE5__getB8ne180100Ev, symObjAddr: 0x2CD4, symBinAddr: 0x10000A518, symSize: 0x14 }
  - { offset: 0x12616, size: 0x8, addend: 0x0, symName: __ZNSt3__16vectorIcNS_9allocatorIcEEED2B8ne180100Ev, symObjAddr: 0x2CE8, symBinAddr: 0x10000A52C, symSize: 0x40 }
  - { offset: 0x12640, size: 0x8, addend: 0x0, symName: __ZN21AdjMatrixUndirNetworkIciEC2ERKNSt3__16vectorIcNS1_9allocatorIcEEEE, symObjAddr: 0x2D28, symBinAddr: 0x10000A56C, symSize: 0x114 }
  - { offset: 0x12678, size: 0x8, addend: 0x0, symName: __ZNKSt3__16vectorIcNS_9allocatorIcEEE4sizeB8ne180100Ev, symObjAddr: 0x2E3C, symBinAddr: 0x10000A680, symSize: 0x20 }
  - { offset: 0x1269E, size: 0x8, addend: 0x0, symName: __ZNSt3__16vectorIiNS_9allocatorIiEEEC1EmRKi, symObjAddr: 0x2E5C, symBinAddr: 0x10000A6A0, symSize: 0x3C }
  - { offset: 0x126E8, size: 0x8, addend: 0x0, symName: __ZNSt3__16vectorINS0_IiNS_9allocatorIiEEEENS1_IS3_EEEC1EmRKS3_, symObjAddr: 0x2E98, symBinAddr: 0x10000A6DC, symSize: 0x3C }
  - { offset: 0x12732, size: 0x8, addend: 0x0, symName: __ZNSt3__16vectorIcNS_9allocatorIcEEEC1ERKS3_, symObjAddr: 0x2ED4, symBinAddr: 0x10000A718, symSize: 0x34 }
  - { offset: 0x1276D, size: 0x8, addend: 0x0, symName: __ZNSt3__16vectorIbNS_9allocatorIbEEEC1EmRKb, symObjAddr: 0x2F08, symBinAddr: 0x10000A74C, symSize: 0x3C }
  - { offset: 0x127B7, size: 0x8, addend: 0x0, symName: __ZNSt3__16vectorIiNS_9allocatorIiEEEC2EmRKi, symObjAddr: 0x2F44, symBinAddr: 0x10000A788, symSize: 0xD8 }
  - { offset: 0x12816, size: 0x8, addend: 0x0, symName: __ZNSt3__117__compressed_pairIPiNS_9allocatorIiEEEC1B8ne180100IDnNS_18__default_init_tagEEEOT_OT0_, symObjAddr: 0x301C, symBinAddr: 0x10000A860, symSize: 0x3C }
  - { offset: 0x1286E, size: 0x8, addend: 0x0, symName: __ZNSt3__16vectorIiNS_9allocatorIiEEE11__vallocateB8ne180100Em, symObjAddr: 0x3098, symBinAddr: 0x10000A8DC, symSize: 0xA8 }
  - { offset: 0x128B2, size: 0x8, addend: 0x0, symName: __ZNSt3__16vectorIiNS_9allocatorIiEEE18__construct_at_endEmRKi, symObjAddr: 0x3140, symBinAddr: 0x10000A984, symSize: 0xCC }
  - { offset: 0x12933, size: 0x8, addend: 0x0, symName: __ZNSt3__128__exception_guard_exceptionsINS_6vectorIiNS_9allocatorIiEEE16__destroy_vectorEE10__completeB8ne180100Ev, symObjAddr: 0x320C, symBinAddr: 0x10000AA50, symSize: 0x1C }
  - { offset: 0x12959, size: 0x8, addend: 0x0, symName: __ZNSt3__128__exception_guard_exceptionsINS_6vectorIiNS_9allocatorIiEEE16__destroy_vectorEED1B8ne180100Ev, symObjAddr: 0x3228, symBinAddr: 0x10000AA6C, symSize: 0x2C }
  - { offset: 0x12983, size: 0x8, addend: 0x0, symName: __ZNSt3__117__compressed_pairIPiNS_9allocatorIiEEEC2B8ne180100IDnNS_18__default_init_tagEEEOT_OT0_, symObjAddr: 0x3254, symBinAddr: 0x10000AA98, symSize: 0x40 }
  - { offset: 0x129DB, size: 0x8, addend: 0x0, symName: __ZNSt3__122__compressed_pair_elemIPiLi0ELb0EEC2B8ne180100IDnvEEOT_, symObjAddr: 0x3294, symBinAddr: 0x10000AAD8, symSize: 0x1C }
  - { offset: 0x12A1D, size: 0x8, addend: 0x0, symName: __ZNSt3__122__compressed_pair_elemINS_9allocatorIiEELi1ELb1EEC2B8ne180100ENS_18__default_init_tagE, symObjAddr: 0x32B0, symBinAddr: 0x10000AAF4, symSize: 0x2C }
  - { offset: 0x12A52, size: 0x8, addend: 0x0, symName: __ZNSt3__19allocatorIiEC2B8ne180100Ev, symObjAddr: 0x32DC, symBinAddr: 0x10000AB20, symSize: 0x2C }
  - { offset: 0x12A7C, size: 0x8, addend: 0x0, symName: __ZNSt3__116__non_trivial_ifILb1ENS_9allocatorIiEEEC2B8ne180100Ev, symObjAddr: 0x3308, symBinAddr: 0x10000AB4C, symSize: 0x14 }
  - { offset: 0x12AA6, size: 0x8, addend: 0x0, symName: __ZNSt3__128__exception_guard_exceptionsINS_6vectorIiNS_9allocatorIiEEE16__destroy_vectorEEC1B8ne180100ES5_, symObjAddr: 0x331C, symBinAddr: 0x10000AB60, symSize: 0x34 }
  - { offset: 0x12ADE, size: 0x8, addend: 0x0, symName: __ZNSt3__128__exception_guard_exceptionsINS_6vectorIiNS_9allocatorIiEEE16__destroy_vectorEEC2B8ne180100ES5_, symObjAddr: 0x3350, symBinAddr: 0x10000AB94, symSize: 0x24 }
  - { offset: 0x12B16, size: 0x8, addend: 0x0, symName: __ZNKSt3__16vectorIiNS_9allocatorIiEEE8max_sizeEv, symObjAddr: 0x3374, symBinAddr: 0x10000ABB8, symSize: 0x60 }
  - { offset: 0x12B3E, size: 0x8, addend: 0x0, symName: __ZNKSt3__16vectorIiNS_9allocatorIiEEE20__throw_length_errorB8ne180100Ev, symObjAddr: 0x33D4, symBinAddr: 0x10000AC18, symSize: 0x1C }
  - { offset: 0x12B64, size: 0x8, addend: 0x0, symName: __ZNSt3__16vectorIiNS_9allocatorIiEEE9__end_capB8ne180100Ev, symObjAddr: 0x3430, symBinAddr: 0x10000AC74, symSize: 0x28 }
  - { offset: 0x12B8A, size: 0x8, addend: 0x0, symName: __ZNKSt3__16vectorIiNS_9allocatorIiEEE14__annotate_newB8ne180100Em, symObjAddr: 0x3458, symBinAddr: 0x10000AC9C, symSize: 0x14 }
  - { offset: 0x12BC9, size: 0x8, addend: 0x0, symName: __ZNSt3__116allocator_traitsINS_9allocatorIiEEE8max_sizeB8ne180100IS2_vEEmRKS2_, symObjAddr: 0x346C, symBinAddr: 0x10000ACB0, symSize: 0x24 }
  - { offset: 0x12BF7, size: 0x8, addend: 0x0, symName: __ZNKSt3__16vectorIiNS_9allocatorIiEEE7__allocB8ne180100Ev, symObjAddr: 0x3490, symBinAddr: 0x10000ACD4, symSize: 0x28 }
  - { offset: 0x12C1D, size: 0x8, addend: 0x0, symName: __ZNKSt3__19allocatorIiE8max_sizeB8ne180100Ev, symObjAddr: 0x34B8, symBinAddr: 0x10000ACFC, symSize: 0x14 }
  - { offset: 0x12C43, size: 0x8, addend: 0x0, symName: __ZNKSt3__117__compressed_pairIPiNS_9allocatorIiEEE6secondB8ne180100Ev, symObjAddr: 0x34CC, symBinAddr: 0x10000AD10, symSize: 0x24 }
  - { offset: 0x12C69, size: 0x8, addend: 0x0, symName: __ZNKSt3__122__compressed_pair_elemINS_9allocatorIiEELi1ELb1EE5__getB8ne180100Ev, symObjAddr: 0x34F0, symBinAddr: 0x10000AD34, symSize: 0x14 }
  - { offset: 0x12C8F, size: 0x8, addend: 0x0, symName: __ZNSt3__19allocatorIiE8allocateB8ne180100Em, symObjAddr: 0x3504, symBinAddr: 0x10000AD48, symSize: 0x54 }
  - { offset: 0x12CC3, size: 0x8, addend: 0x0, symName: __ZNSt3__117__compressed_pairIPiNS_9allocatorIiEEE5firstB8ne180100Ev, symObjAddr: 0x3558, symBinAddr: 0x10000AD9C, symSize: 0x24 }
  - { offset: 0x12CE9, size: 0x8, addend: 0x0, symName: __ZNSt3__122__compressed_pair_elemIPiLi0ELb0EE5__getB8ne180100Ev, symObjAddr: 0x357C, symBinAddr: 0x10000ADC0, symSize: 0x14 }
  - { offset: 0x12D28, size: 0x8, addend: 0x0, symName: __ZNSt3__16vectorIiNS_9allocatorIiEEE21_ConstructTransactionC1B8ne180100ERS3_m, symObjAddr: 0x3590, symBinAddr: 0x10000ADD4, symSize: 0x3C }
  - { offset: 0x12D70, size: 0x8, addend: 0x0, symName: __ZNSt3__116allocator_traitsINS_9allocatorIiEEE9constructB8ne180100IiJRKiEvEEvRS2_PT_DpOT0_, symObjAddr: 0x35CC, symBinAddr: 0x10000AE10, symSize: 0x34 }
  - { offset: 0x12DC7, size: 0x8, addend: 0x0, symName: __ZNSt3__16vectorIiNS_9allocatorIiEEE21_ConstructTransactionD1B8ne180100Ev, symObjAddr: 0x3600, symBinAddr: 0x10000AE44, symSize: 0x2C }
  - { offset: 0x12DF1, size: 0x8, addend: 0x0, symName: __ZNSt3__16vectorIiNS_9allocatorIiEEE21_ConstructTransactionC2B8ne180100ERS3_m, symObjAddr: 0x362C, symBinAddr: 0x10000AE70, symSize: 0x44 }
  - { offset: 0x12E39, size: 0x8, addend: 0x0, symName: __ZNSt3__19allocatorIiE9constructB8ne180100IiJRKiEEEvPT_DpOT0_, symObjAddr: 0x3670, symBinAddr: 0x10000AEB4, symSize: 0x28 }
  - { offset: 0x12E8F, size: 0x8, addend: 0x0, symName: __ZNSt3__16vectorIiNS_9allocatorIiEEE21_ConstructTransactionD2B8ne180100Ev, symObjAddr: 0x3698, symBinAddr: 0x10000AEDC, symSize: 0x20 }
  - { offset: 0x12EB9, size: 0x8, addend: 0x0, symName: __ZNSt3__128__exception_guard_exceptionsINS_6vectorIiNS_9allocatorIiEEE16__destroy_vectorEED2B8ne180100Ev, symObjAddr: 0x36B8, symBinAddr: 0x10000AEFC, symSize: 0x48 }
  - { offset: 0x12EE3, size: 0x8, addend: 0x0, symName: __ZNSt3__16vectorINS0_IiNS_9allocatorIiEEEENS1_IS3_EEEC2EmRKS3_, symObjAddr: 0x3700, symBinAddr: 0x10000AF44, symSize: 0xD8 }
  - { offset: 0x12F42, size: 0x8, addend: 0x0, symName: __ZNSt3__117__compressed_pairIPNS_6vectorIiNS_9allocatorIiEEEENS2_IS4_EEEC1B8ne180100IDnNS_18__default_init_tagEEEOT_OT0_, symObjAddr: 0x37D8, symBinAddr: 0x10000B01C, symSize: 0x3C }
  - { offset: 0x12F9A, size: 0x8, addend: 0x0, symName: __ZNSt3__16vectorINS0_IiNS_9allocatorIiEEEENS1_IS3_EEE11__vallocateB8ne180100Em, symObjAddr: 0x3854, symBinAddr: 0x10000B098, symSize: 0xB0 }
  - { offset: 0x12FDE, size: 0x8, addend: 0x0, symName: __ZNSt3__16vectorINS0_IiNS_9allocatorIiEEEENS1_IS3_EEE18__construct_at_endEmRKS3_, symObjAddr: 0x3904, symBinAddr: 0x10000B148, symSize: 0xCC }
  - { offset: 0x1305F, size: 0x8, addend: 0x0, symName: __ZNSt3__128__exception_guard_exceptionsINS_6vectorINS1_IiNS_9allocatorIiEEEENS2_IS4_EEE16__destroy_vectorEE10__completeB8ne180100Ev, symObjAddr: 0x39D0, symBinAddr: 0x10000B214, symSize: 0x1C }
  - { offset: 0x13085, size: 0x8, addend: 0x0, symName: __ZNSt3__128__exception_guard_exceptionsINS_6vectorINS1_IiNS_9allocatorIiEEEENS2_IS4_EEE16__destroy_vectorEED1B8ne180100Ev, symObjAddr: 0x39EC, symBinAddr: 0x10000B230, symSize: 0x2C }
  - { offset: 0x130AF, size: 0x8, addend: 0x0, symName: __ZNSt3__117__compressed_pairIPNS_6vectorIiNS_9allocatorIiEEEENS2_IS4_EEEC2B8ne180100IDnNS_18__default_init_tagEEEOT_OT0_, symObjAddr: 0x3A18, symBinAddr: 0x10000B25C, symSize: 0x40 }
  - { offset: 0x13107, size: 0x8, addend: 0x0, symName: __ZNSt3__122__compressed_pair_elemIPNS_6vectorIiNS_9allocatorIiEEEELi0ELb0EEC2B8ne180100IDnvEEOT_, symObjAddr: 0x3A58, symBinAddr: 0x10000B29C, symSize: 0x1C }
  - { offset: 0x13149, size: 0x8, addend: 0x0, symName: __ZNSt3__122__compressed_pair_elemINS_9allocatorINS_6vectorIiNS1_IiEEEEEELi1ELb1EEC2B8ne180100ENS_18__default_init_tagE, symObjAddr: 0x3A74, symBinAddr: 0x10000B2B8, symSize: 0x2C }
  - { offset: 0x1317E, size: 0x8, addend: 0x0, symName: __ZNSt3__19allocatorINS_6vectorIiNS0_IiEEEEEC2B8ne180100Ev, symObjAddr: 0x3AA0, symBinAddr: 0x10000B2E4, symSize: 0x2C }
  - { offset: 0x131A8, size: 0x8, addend: 0x0, symName: __ZNSt3__116__non_trivial_ifILb1ENS_9allocatorINS_6vectorIiNS1_IiEEEEEEEC2B8ne180100Ev, symObjAddr: 0x3ACC, symBinAddr: 0x10000B310, symSize: 0x14 }
  - { offset: 0x131D2, size: 0x8, addend: 0x0, symName: __ZNSt3__128__exception_guard_exceptionsINS_6vectorINS1_IiNS_9allocatorIiEEEENS2_IS4_EEE16__destroy_vectorEEC1B8ne180100ES7_, symObjAddr: 0x3AE0, symBinAddr: 0x10000B324, symSize: 0x34 }
  - { offset: 0x1320A, size: 0x8, addend: 0x0, symName: __ZNSt3__128__exception_guard_exceptionsINS_6vectorINS1_IiNS_9allocatorIiEEEENS2_IS4_EEE16__destroy_vectorEEC2B8ne180100ES7_, symObjAddr: 0x3B14, symBinAddr: 0x10000B358, symSize: 0x24 }
  - { offset: 0x13242, size: 0x8, addend: 0x0, symName: __ZNKSt3__16vectorINS0_IiNS_9allocatorIiEEEENS1_IS3_EEE8max_sizeEv, symObjAddr: 0x3B38, symBinAddr: 0x10000B37C, symSize: 0x60 }
  - { offset: 0x1326A, size: 0x8, addend: 0x0, symName: __ZNKSt3__16vectorINS0_IiNS_9allocatorIiEEEENS1_IS3_EEE20__throw_length_errorB8ne180100Ev, symObjAddr: 0x3B98, symBinAddr: 0x10000B3DC, symSize: 0x1C }
  - { offset: 0x13290, size: 0x8, addend: 0x0, symName: __ZNSt3__16vectorINS0_IiNS_9allocatorIiEEEENS1_IS3_EEE9__end_capB8ne180100Ev, symObjAddr: 0x3BF4, symBinAddr: 0x10000B438, symSize: 0x28 }
  - { offset: 0x132B6, size: 0x8, addend: 0x0, symName: __ZNKSt3__16vectorINS0_IiNS_9allocatorIiEEEENS1_IS3_EEE14__annotate_newB8ne180100Em, symObjAddr: 0x3C1C, symBinAddr: 0x10000B460, symSize: 0x14 }
  - { offset: 0x132F5, size: 0x8, addend: 0x0, symName: __ZNSt3__116allocator_traitsINS_9allocatorINS_6vectorIiNS1_IiEEEEEEE8max_sizeB8ne180100IS5_vEEmRKS5_, symObjAddr: 0x3C30, symBinAddr: 0x10000B474, symSize: 0x24 }
  - { offset: 0x13323, size: 0x8, addend: 0x0, symName: __ZNKSt3__16vectorINS0_IiNS_9allocatorIiEEEENS1_IS3_EEE7__allocB8ne180100Ev, symObjAddr: 0x3C54, symBinAddr: 0x10000B498, symSize: 0x28 }
  - { offset: 0x13349, size: 0x8, addend: 0x0, symName: __ZNKSt3__19allocatorINS_6vectorIiNS0_IiEEEEE8max_sizeB8ne180100Ev, symObjAddr: 0x3C7C, symBinAddr: 0x10000B4C0, symSize: 0x18 }
  - { offset: 0x1336F, size: 0x8, addend: 0x0, symName: __ZNKSt3__117__compressed_pairIPNS_6vectorIiNS_9allocatorIiEEEENS2_IS4_EEE6secondB8ne180100Ev, symObjAddr: 0x3C94, symBinAddr: 0x10000B4D8, symSize: 0x24 }
  - { offset: 0x13395, size: 0x8, addend: 0x0, symName: __ZNKSt3__122__compressed_pair_elemINS_9allocatorINS_6vectorIiNS1_IiEEEEEELi1ELb1EE5__getB8ne180100Ev, symObjAddr: 0x3CB8, symBinAddr: 0x10000B4FC, symSize: 0x14 }
  - { offset: 0x133BB, size: 0x8, addend: 0x0, symName: __ZNSt3__19allocatorINS_6vectorIiNS0_IiEEEEE8allocateB8ne180100Em, symObjAddr: 0x3CCC, symBinAddr: 0x10000B510, symSize: 0x58 }
  - { offset: 0x133EF, size: 0x8, addend: 0x0, symName: __ZNSt3__117__compressed_pairIPNS_6vectorIiNS_9allocatorIiEEEENS2_IS4_EEE5firstB8ne180100Ev, symObjAddr: 0x3D24, symBinAddr: 0x10000B568, symSize: 0x24 }
  - { offset: 0x13415, size: 0x8, addend: 0x0, symName: __ZNSt3__122__compressed_pair_elemIPNS_6vectorIiNS_9allocatorIiEEEELi0ELb0EE5__getB8ne180100Ev, symObjAddr: 0x3D48, symBinAddr: 0x10000B58C, symSize: 0x14 }
  - { offset: 0x13454, size: 0x8, addend: 0x0, symName: __ZNSt3__16vectorINS0_IiNS_9allocatorIiEEEENS1_IS3_EEE21_ConstructTransactionC1B8ne180100ERS5_m, symObjAddr: 0x3D5C, symBinAddr: 0x10000B5A0, symSize: 0x3C }
  - { offset: 0x1349C, size: 0x8, addend: 0x0, symName: __ZNSt3__116allocator_traitsINS_9allocatorINS_6vectorIiNS1_IiEEEEEEE9constructB8ne180100IS4_JRKS4_EvEEvRS5_PT_DpOT0_, symObjAddr: 0x3D98, symBinAddr: 0x10000B5DC, symSize: 0x34 }
  - { offset: 0x134F3, size: 0x8, addend: 0x0, symName: __ZNSt3__16vectorINS0_IiNS_9allocatorIiEEEENS1_IS3_EEE21_ConstructTransactionD1B8ne180100Ev, symObjAddr: 0x3DCC, symBinAddr: 0x10000B610, symSize: 0x2C }
  - { offset: 0x1351D, size: 0x8, addend: 0x0, symName: __ZNSt3__16vectorINS0_IiNS_9allocatorIiEEEENS1_IS3_EEE21_ConstructTransactionC2B8ne180100ERS5_m, symObjAddr: 0x3DF8, symBinAddr: 0x10000B63C, symSize: 0x4C }
  - { offset: 0x13565, size: 0x8, addend: 0x0, symName: __ZNSt3__19allocatorINS_6vectorIiNS0_IiEEEEE9constructB8ne180100IS3_JRKS3_EEEvPT_DpOT0_, symObjAddr: 0x3E44, symBinAddr: 0x10000B688, symSize: 0x30 }
  - { offset: 0x135BB, size: 0x8, addend: 0x0, symName: __ZNSt3__16vectorIiNS_9allocatorIiEEEC1ERKS3_, symObjAddr: 0x3E74, symBinAddr: 0x10000B6B8, symSize: 0x34 }
  - { offset: 0x135F6, size: 0x8, addend: 0x0, symName: __ZNSt3__16vectorIiNS_9allocatorIiEEEC2ERKS3_, symObjAddr: 0x3EA8, symBinAddr: 0x10000B6EC, symSize: 0x94 }
  - { offset: 0x13631, size: 0x8, addend: 0x0, symName: __ZNSt3__116allocator_traitsINS_9allocatorIiEEE37select_on_container_copy_constructionB8ne180100IS2_vvEES2_RKS2_, symObjAddr: 0x3F3C, symBinAddr: 0x10000B780, symSize: 0x10 }
  - { offset: 0x13665, size: 0x8, addend: 0x0, symName: __ZNSt3__117__compressed_pairIPiNS_9allocatorIiEEEC1B8ne180100IDnS3_EEOT_OT0_, symObjAddr: 0x3F4C, symBinAddr: 0x10000B790, symSize: 0x3C }
  - { offset: 0x136BD, size: 0x8, addend: 0x0, symName: __ZNSt3__16vectorIiNS_9allocatorIiEEE16__init_with_sizeB8ne180100IPiS5_EEvT_T0_m, symObjAddr: 0x3F88, symBinAddr: 0x10000B7CC, symSize: 0xB4 }
  - { offset: 0x13731, size: 0x8, addend: 0x0, symName: __ZNKSt3__16vectorIiNS_9allocatorIiEEE4sizeB8ne180100Ev, symObjAddr: 0x403C, symBinAddr: 0x10000B880, symSize: 0x28 }
  - { offset: 0x13757, size: 0x8, addend: 0x0, symName: __ZNSt3__117__compressed_pairIPiNS_9allocatorIiEEEC2B8ne180100IDnS3_EEOT_OT0_, symObjAddr: 0x4064, symBinAddr: 0x10000B8A8, symSize: 0x44 }
  - { offset: 0x137AF, size: 0x8, addend: 0x0, symName: __ZNSt3__122__compressed_pair_elemINS_9allocatorIiEELi1ELb1EEC2B8ne180100IS2_vEEOT_, symObjAddr: 0x40A8, symBinAddr: 0x10000B8EC, symSize: 0x18 }
  - { offset: 0x137F1, size: 0x8, addend: 0x0, symName: __ZNSt3__16vectorIiNS_9allocatorIiEEE18__construct_at_endIPiS5_EEvT_T0_m, symObjAddr: 0x40C0, symBinAddr: 0x10000B904, symSize: 0x8C }
  - { offset: 0x13883, size: 0x8, addend: 0x0, symName: __ZNSt3__14pairIPiS1_EC1B8ne180100IS1_S1_TnNS_9enable_ifIXclsr10_CheckArgsE17__enable_implicitIT_T0_EEEiE4typeELi0EEEOS5_OS6_, symObjAddr: 0x42FC, symBinAddr: 0x10000BB40, symSize: 0x3C }
  - { offset: 0x138E1, size: 0x8, addend: 0x0, symName: __ZNSt3__14pairIPiS1_EC2B8ne180100IS1_S1_TnNS_9enable_ifIXclsr10_CheckArgsE17__enable_implicitIT_T0_EEEiE4typeELi0EEEOS5_OS6_, symObjAddr: 0x4338, symBinAddr: 0x10000BB7C, symSize: 0x34 }
  - { offset: 0x1393F, size: 0x8, addend: 0x0, symName: __ZNKSt3__114__copy_trivialclB8ne180100IiiTnNS_9enable_ifIXsr38__can_lower_copy_assignment_to_memmoveIT_T0_EE5valueEiE4typeELi0EEENS_4pairIPS3_PS4_EES8_S8_S9_, symObjAddr: 0x44E8, symBinAddr: 0x10000BD2C, symSize: 0x48 }
  - { offset: 0x139A7, size: 0x8, addend: 0x0, symName: __ZNSt3__14pairIPiS1_EC1B8ne180100IRS1_S1_TnNS_9enable_ifIXclsr10_CheckArgsE17__enable_implicitIT_T0_EEEiE4typeELi0EEEOS6_OS7_, symObjAddr: 0x4674, symBinAddr: 0x10000BEB8, symSize: 0x3C }
  - { offset: 0x13A05, size: 0x8, addend: 0x0, symName: __ZNSt3__14pairIPiS1_EC2B8ne180100IRS1_S1_TnNS_9enable_ifIXclsr10_CheckArgsE17__enable_implicitIT_T0_EEEiE4typeELi0EEEOS6_OS7_, symObjAddr: 0x46B0, symBinAddr: 0x10000BEF4, symSize: 0x34 }
  - { offset: 0x13A63, size: 0x8, addend: 0x0, symName: __ZNSt3__118__unwrap_iter_implIPiLb1EE8__unwrapB8ne180100ES1_, symObjAddr: 0x46E4, symBinAddr: 0x10000BF28, symSize: 0x24 }
  - { offset: 0x13A86, size: 0x8, addend: 0x0, symName: __ZNSt3__118__unwrap_iter_implIPiLb1EE8__rewrapB8ne180100ES1_S1_, symObjAddr: 0x4708, symBinAddr: 0x10000BF4C, symSize: 0x50 }
  - { offset: 0x13AB7, size: 0x8, addend: 0x0, symName: __ZNSt3__16vectorINS0_IiNS_9allocatorIiEEEENS1_IS3_EEE21_ConstructTransactionD2B8ne180100Ev, symObjAddr: 0x4758, symBinAddr: 0x10000BF9C, symSize: 0x20 }
  - { offset: 0x13AE1, size: 0x8, addend: 0x0, symName: __ZNSt3__128__exception_guard_exceptionsINS_6vectorINS1_IiNS_9allocatorIiEEEENS2_IS4_EEE16__destroy_vectorEED2B8ne180100Ev, symObjAddr: 0x4778, symBinAddr: 0x10000BFBC, symSize: 0x48 }
  - { offset: 0x13B0B, size: 0x8, addend: 0x0, symName: __ZNSt3__16vectorIcNS_9allocatorIcEEEC2ERKS3_, symObjAddr: 0x47C0, symBinAddr: 0x10000C004, symSize: 0x94 }
  - { offset: 0x13B46, size: 0x8, addend: 0x0, symName: __ZNSt3__116allocator_traitsINS_9allocatorIcEEE37select_on_container_copy_constructionB8ne180100IS2_vvEES2_RKS2_, symObjAddr: 0x4854, symBinAddr: 0x10000C098, symSize: 0x10 }
  - { offset: 0x13B7A, size: 0x8, addend: 0x0, symName: __ZNSt3__117__compressed_pairIPcNS_9allocatorIcEEEC1B8ne180100IDnS3_EEOT_OT0_, symObjAddr: 0x4864, symBinAddr: 0x10000C0A8, symSize: 0x3C }
  - { offset: 0x13BD2, size: 0x8, addend: 0x0, symName: __ZNSt3__16vectorIcNS_9allocatorIcEEE16__init_with_sizeB8ne180100IPcS5_EEvT_T0_m, symObjAddr: 0x48A0, symBinAddr: 0x10000C0E4, symSize: 0xB4 }
  - { offset: 0x13C46, size: 0x8, addend: 0x0, symName: __ZNSt3__117__compressed_pairIPcNS_9allocatorIcEEEC2B8ne180100IDnS3_EEOT_OT0_, symObjAddr: 0x4954, symBinAddr: 0x10000C198, symSize: 0x44 }
  - { offset: 0x13C9E, size: 0x8, addend: 0x0, symName: __ZNSt3__122__compressed_pair_elemINS_9allocatorIcEELi1ELb1EEC2B8ne180100IS2_vEEOT_, symObjAddr: 0x4998, symBinAddr: 0x10000C1DC, symSize: 0x18 }
  - { offset: 0x13CE0, size: 0x8, addend: 0x0, symName: __ZNSt3__16vectorIcNS_9allocatorIcEEE18__construct_at_endIPcS5_EEvT_T0_m, symObjAddr: 0x49B0, symBinAddr: 0x10000C1F4, symSize: 0x8C }
  - { offset: 0x13D6D, size: 0x8, addend: 0x0, symName: __ZNSt3__14pairIPcS1_EC1B8ne180100IS1_S1_TnNS_9enable_ifIXclsr10_CheckArgsE17__enable_implicitIT_T0_EEEiE4typeELi0EEEOS5_OS6_, symObjAddr: 0x4B8C, symBinAddr: 0x10000C3D0, symSize: 0x3C }
  - { offset: 0x13DCB, size: 0x8, addend: 0x0, symName: __ZNSt3__14pairIPcS1_EC2B8ne180100IS1_S1_TnNS_9enable_ifIXclsr10_CheckArgsE17__enable_implicitIT_T0_EEEiE4typeELi0EEEOS5_OS6_, symObjAddr: 0x4BC8, symBinAddr: 0x10000C40C, symSize: 0x34 }
  - { offset: 0x13E29, size: 0x8, addend: 0x0, symName: __ZNKSt3__114__copy_trivialclB8ne180100IccTnNS_9enable_ifIXsr38__can_lower_copy_assignment_to_memmoveIT_T0_EE5valueEiE4typeELi0EEENS_4pairIPS3_PS4_EES8_S8_S9_, symObjAddr: 0x4D78, symBinAddr: 0x10000C5BC, symSize: 0x48 }
  - { offset: 0x13E91, size: 0x8, addend: 0x0, symName: __ZNSt3__14pairIPcS1_EC1B8ne180100IRS1_S1_TnNS_9enable_ifIXclsr10_CheckArgsE17__enable_implicitIT_T0_EEEiE4typeELi0EEEOS6_OS7_, symObjAddr: 0x4EFC, symBinAddr: 0x10000C740, symSize: 0x3C }
  - { offset: 0x13EEF, size: 0x8, addend: 0x0, symName: __ZNSt3__14pairIPcS1_EC2B8ne180100IRS1_S1_TnNS_9enable_ifIXclsr10_CheckArgsE17__enable_implicitIT_T0_EEEiE4typeELi0EEEOS6_OS7_, symObjAddr: 0x4F38, symBinAddr: 0x10000C77C, symSize: 0x34 }
  - { offset: 0x13F4D, size: 0x8, addend: 0x0, symName: __ZNSt3__16vectorIbNS_9allocatorIbEEEC2EmRKb, symObjAddr: 0x4F6C, symBinAddr: 0x10000C7B0, symSize: 0x8C }
  - { offset: 0x13F9C, size: 0x8, addend: 0x0, symName: __ZNSt3__117__compressed_pairImNS_9allocatorImEEEC1B8ne180100IiNS_18__default_init_tagEEEOT_OT0_, symObjAddr: 0x4FF8, symBinAddr: 0x10000C83C, symSize: 0x3C }
  - { offset: 0x13FF4, size: 0x8, addend: 0x0, symName: __ZNSt3__16vectorIbNS_9allocatorIbEEE11__vallocateB8ne180100Em, symObjAddr: 0x5034, symBinAddr: 0x10000C878, symSize: 0x9C }
  - { offset: 0x14038, size: 0x8, addend: 0x0, symName: __ZNSt3__16vectorIbNS_9allocatorIbEEE18__construct_at_endB8ne180100Emb, symObjAddr: 0x50D0, symBinAddr: 0x10000C914, symSize: 0xF0 }
  - { offset: 0x1408D, size: 0x8, addend: 0x0, symName: __ZNSt3__117__compressed_pairImNS_9allocatorImEEEC2B8ne180100IiNS_18__default_init_tagEEEOT_OT0_, symObjAddr: 0x51C0, symBinAddr: 0x10000CA04, symSize: 0x40 }
  - { offset: 0x140E5, size: 0x8, addend: 0x0, symName: __ZNSt3__122__compressed_pair_elemImLi0ELb0EEC2B8ne180100IivEEOT_, symObjAddr: 0x5200, symBinAddr: 0x10000CA44, symSize: 0x24 }
  - { offset: 0x14127, size: 0x8, addend: 0x0, symName: __ZNSt3__122__compressed_pair_elemINS_9allocatorImEELi1ELb1EEC2B8ne180100ENS_18__default_init_tagE, symObjAddr: 0x5224, symBinAddr: 0x10000CA68, symSize: 0x2C }
  - { offset: 0x1415C, size: 0x8, addend: 0x0, symName: __ZNSt3__19allocatorImEC2B8ne180100Ev, symObjAddr: 0x5250, symBinAddr: 0x10000CA94, symSize: 0x2C }
  - { offset: 0x14186, size: 0x8, addend: 0x0, symName: __ZNSt3__116__non_trivial_ifILb1ENS_9allocatorImEEEC2B8ne180100Ev, symObjAddr: 0x527C, symBinAddr: 0x10000CAC0, symSize: 0x14 }
  - { offset: 0x141B0, size: 0x8, addend: 0x0, symName: __ZNKSt3__16vectorIbNS_9allocatorIbEEE8max_sizeEv, symObjAddr: 0x5290, symBinAddr: 0x10000CAD4, symSize: 0x78 }
  - { offset: 0x141F6, size: 0x8, addend: 0x0, symName: __ZNKSt3__16vectorIbNS_9allocatorIbEEE20__throw_length_errorB8ne180100Ev, symObjAddr: 0x5308, symBinAddr: 0x10000CB4C, symSize: 0x1C }
  - { offset: 0x1421C, size: 0x8, addend: 0x0, symName: __ZNSt3__16vectorIbNS_9allocatorIbEEE26__external_cap_to_internalB8ne180100Em, symObjAddr: 0x5364, symBinAddr: 0x10000CBA8, symSize: 0x24 }
  - { offset: 0x1424A, size: 0x8, addend: 0x0, symName: __ZNSt3__116allocator_traitsINS_9allocatorImEEE8max_sizeB8ne180100IS2_vEEmRKS2_, symObjAddr: 0x5388, symBinAddr: 0x10000CBCC, symSize: 0x24 }
  - { offset: 0x14278, size: 0x8, addend: 0x0, symName: __ZNKSt3__16vectorIbNS_9allocatorIbEEE7__allocB8ne180100Ev, symObjAddr: 0x53AC, symBinAddr: 0x10000CBF0, symSize: 0x28 }
  - { offset: 0x1429E, size: 0x8, addend: 0x0, symName: __ZNSt3__114numeric_limitsImE3maxB8ne180100Ev, symObjAddr: 0x53D4, symBinAddr: 0x10000CC18, symSize: 0x14 }
  - { offset: 0x142B2, size: 0x8, addend: 0x0, symName: __ZNSt3__16vectorIbNS_9allocatorIbEEE26__internal_cap_to_externalB8ne180100Em, symObjAddr: 0x53E8, symBinAddr: 0x10000CC2C, symSize: 0x18 }
  - { offset: 0x142D6, size: 0x8, addend: 0x0, symName: __ZNKSt3__19allocatorImE8max_sizeB8ne180100Ev, symObjAddr: 0x5400, symBinAddr: 0x10000CC44, symSize: 0x14 }
  - { offset: 0x142FC, size: 0x8, addend: 0x0, symName: __ZNKSt3__117__compressed_pairImNS_9allocatorImEEE6secondB8ne180100Ev, symObjAddr: 0x5414, symBinAddr: 0x10000CC58, symSize: 0x24 }
  - { offset: 0x14322, size: 0x8, addend: 0x0, symName: __ZNKSt3__122__compressed_pair_elemINS_9allocatorImEELi1ELb1EE5__getB8ne180100Ev, symObjAddr: 0x5438, symBinAddr: 0x10000CC7C, symSize: 0x14 }
  - { offset: 0x14348, size: 0x8, addend: 0x0, symName: __ZNSt3__123__libcpp_numeric_limitsImLb1EE3maxB8ne180100Ev, symObjAddr: 0x544C, symBinAddr: 0x10000CC90, symSize: 0x8 }
  - { offset: 0x1435C, size: 0x8, addend: 0x0, symName: __ZNSt3__19allocatorImE8allocateB8ne180100Em, symObjAddr: 0x5454, symBinAddr: 0x10000CC98, symSize: 0x54 }
  - { offset: 0x14390, size: 0x8, addend: 0x0, symName: __ZNSt3__16vectorIbNS_9allocatorIbEEE11__make_iterB8ne180100Em, symObjAddr: 0x5530, symBinAddr: 0x10000CD74, symSize: 0x64 }
  - { offset: 0x143C5, size: 0x8, addend: 0x0, symName: __ZNSt3__114__bit_iteratorINS_6vectorIbNS_9allocatorIbEEEELb0ELm0EEC1B8ne180100ERKS5_, symObjAddr: 0x56EC, symBinAddr: 0x10000CF30, symSize: 0x34 }
  - { offset: 0x143FE, size: 0x8, addend: 0x0, symName: __ZNSt3__114__bit_iteratorINS_6vectorIbNS_9allocatorIbEEEELb0ELm0EEC2B8ne180100ERKS5_, symObjAddr: 0x5940, symBinAddr: 0x10000D184, symSize: 0x30 }
  - { offset: 0x14437, size: 0x8, addend: 0x0, symName: __ZNSt3__114__bit_iteratorINS_6vectorIbNS_9allocatorIbEEEELb0ELm0EEC1B8ne180100EPmj, symObjAddr: 0x5970, symBinAddr: 0x10000D1B4, symSize: 0x3C }
  - { offset: 0x1447F, size: 0x8, addend: 0x0, symName: __ZNSt3__114__bit_iteratorINS_6vectorIbNS_9allocatorIbEEEELb0ELm0EEC2B8ne180100EPmj, symObjAddr: 0x59AC, symBinAddr: 0x10000D1F0, symSize: 0x2C }
  - { offset: 0x144C7, size: 0x8, addend: 0x0, symName: __ZNK21AdjMatrixUndirNetworkIciE11checkVertexEi, symObjAddr: 0x59D8, symBinAddr: 0x10000D21C, symSize: 0x54 }
  - { offset: 0x144FB, size: 0x8, addend: 0x0, symName: __ZNSt12out_of_rangeC1B8ne180100EPKc, symObjAddr: 0x5A2C, symBinAddr: 0x10000D270, symSize: 0x34 }
  - { offset: 0x14533, size: 0x8, addend: 0x0, symName: __ZNSt16invalid_argumentC1B8ne180100EPKc, symObjAddr: 0x5A60, symBinAddr: 0x10000D2A4, symSize: 0x34 }
  - { offset: 0x1456B, size: 0x8, addend: 0x0, symName: __ZNSt3__16vectorINS0_IiNS_9allocatorIiEEEENS1_IS3_EEEixB8ne180100Em, symObjAddr: 0x5A94, symBinAddr: 0x10000D2D8, symSize: 0x2C }
  - { offset: 0x145A2, size: 0x8, addend: 0x0, symName: __ZNSt3__16vectorIiNS_9allocatorIiEEEixB8ne180100Em, symObjAddr: 0x5AC0, symBinAddr: 0x10000D304, symSize: 0x24 }
  - { offset: 0x145D9, size: 0x8, addend: 0x0, symName: __ZNSt12out_of_rangeC2B8ne180100EPKc, symObjAddr: 0x5AE4, symBinAddr: 0x10000D328, symSize: 0x44 }
  - { offset: 0x14611, size: 0x8, addend: 0x0, symName: __ZNSt16invalid_argumentC2B8ne180100EPKc, symObjAddr: 0x5B28, symBinAddr: 0x10000D36C, symSize: 0x44 }
  - { offset: 0x14649, size: 0x8, addend: 0x0, symName: __ZNSt3__111char_traitsIcE6lengthB8ne180100EPKc, symObjAddr: 0x5D54, symBinAddr: 0x10000D598, symSize: 0x34 }
  - { offset: 0x1468A, size: 0x8, addend: 0x0, symName: __ZNKSt3__113basic_ostreamIcNS_11char_traitsIcEEE6sentrycvbB8ne180100Ev, symObjAddr: 0x5D88, symBinAddr: 0x10000D5CC, symSize: 0x1C }
  - { offset: 0x146B0, size: 0x8, addend: 0x0, symName: __ZNSt3__119ostreambuf_iteratorIcNS_11char_traitsIcEEEC1B8ne180100ERNS_13basic_ostreamIcS2_EE, symObjAddr: 0x5FB8, symBinAddr: 0x10000D7FC, symSize: 0x34 }
  - { offset: 0x146E8, size: 0x8, addend: 0x0, symName: __ZNKSt3__18ios_base5flagsB8ne180100Ev, symObjAddr: 0x5FEC, symBinAddr: 0x10000D830, symSize: 0x18 }
  - { offset: 0x14710, size: 0x8, addend: 0x0, symName: __ZNKSt3__19basic_iosIcNS_11char_traitsIcEEE4fillB8ne180100Ev, symObjAddr: 0x6004, symBinAddr: 0x10000D848, symSize: 0x64 }
  - { offset: 0x14736, size: 0x8, addend: 0x0, symName: __ZNKSt3__119ostreambuf_iteratorIcNS_11char_traitsIcEEE6failedB8ne180100Ev, symObjAddr: 0x6068, symBinAddr: 0x10000D8AC, symSize: 0x20 }
  - { offset: 0x1475C, size: 0x8, addend: 0x0, symName: __ZNSt3__19basic_iosIcNS_11char_traitsIcEEE8setstateB8ne180100Ej, symObjAddr: 0x6088, symBinAddr: 0x10000D8CC, symSize: 0x2C }
  - { offset: 0x14791, size: 0x8, addend: 0x0, symName: __ZNKSt3__18ios_base5widthB8ne180100Ev, symObjAddr: 0x60B4, symBinAddr: 0x10000D8F8, symSize: 0x18 }
  - { offset: 0x147B9, size: 0x8, addend: 0x0, symName: __ZNSt3__115basic_streambufIcNS_11char_traitsIcEEE5sputnB8ne180100EPKcl, symObjAddr: 0x60CC, symBinAddr: 0x10000D910, symSize: 0x3C }
  - { offset: 0x147FB, size: 0x8, addend: 0x0, symName: __ZNSt3__112basic_stringIcNS_11char_traitsIcEENS_9allocatorIcEEEC1B8ne180100Emc, symObjAddr: 0x6108, symBinAddr: 0x10000D94C, symSize: 0x3C }
  - { offset: 0x14843, size: 0x8, addend: 0x0, symName: __ZNSt3__112basic_stringIcNS_11char_traitsIcEENS_9allocatorIcEEE4dataB8ne180100Ev, symObjAddr: 0x6144, symBinAddr: 0x10000D988, symSize: 0x28 }
  - { offset: 0x14869, size: 0x8, addend: 0x0, symName: __ZNSt3__18ios_base5widthB8ne180100El, symObjAddr: 0x616C, symBinAddr: 0x10000D9B0, symSize: 0x2C }
  - { offset: 0x148AF, size: 0x8, addend: 0x0, symName: __ZNSt3__112basic_stringIcNS_11char_traitsIcEENS_9allocatorIcEEEC2B8ne180100Emc, symObjAddr: 0x6198, symBinAddr: 0x10000D9DC, symSize: 0x4C }
  - { offset: 0x148F7, size: 0x8, addend: 0x0, symName: __ZNSt3__117__compressed_pairINS_12basic_stringIcNS_11char_traitsIcEENS_9allocatorIcEEE5__repES5_EC1B8ne180100INS_18__default_init_tagESA_EEOT_OT0_, symObjAddr: 0x61E4, symBinAddr: 0x10000DA28, symSize: 0x3C }
  - { offset: 0x1494F, size: 0x8, addend: 0x0, symName: __ZNSt3__117__compressed_pairINS_12basic_stringIcNS_11char_traitsIcEENS_9allocatorIcEEE5__repES5_EC2B8ne180100INS_18__default_init_tagESA_EEOT_OT0_, symObjAddr: 0x6220, symBinAddr: 0x10000DA64, symSize: 0x3C }
  - { offset: 0x149A7, size: 0x8, addend: 0x0, symName: __ZNSt3__122__compressed_pair_elemINS_12basic_stringIcNS_11char_traitsIcEENS_9allocatorIcEEE5__repELi0ELb0EEC2B8ne180100ENS_18__default_init_tagE, symObjAddr: 0x625C, symBinAddr: 0x10000DAA0, symSize: 0x14 }
  - { offset: 0x149DC, size: 0x8, addend: 0x0, symName: __ZNSt3__112basic_stringIcNS_11char_traitsIcEENS_9allocatorIcEEE13__get_pointerB8ne180100Ev, symObjAddr: 0x6270, symBinAddr: 0x10000DAB4, symSize: 0x54 }
  - { offset: 0x14A02, size: 0x8, addend: 0x0, symName: __ZNKSt3__112basic_stringIcNS_11char_traitsIcEENS_9allocatorIcEEE9__is_longB8ne180100Ev, symObjAddr: 0x62C4, symBinAddr: 0x10000DB08, symSize: 0x34 }
  - { offset: 0x14A28, size: 0x8, addend: 0x0, symName: __ZNSt3__112basic_stringIcNS_11char_traitsIcEENS_9allocatorIcEEE18__get_long_pointerB8ne180100Ev, symObjAddr: 0x62F8, symBinAddr: 0x10000DB3C, symSize: 0x28 }
  - { offset: 0x14A4E, size: 0x8, addend: 0x0, symName: __ZNSt3__112basic_stringIcNS_11char_traitsIcEENS_9allocatorIcEEE19__get_short_pointerB8ne180100Ev, symObjAddr: 0x6320, symBinAddr: 0x10000DB64, symSize: 0x28 }
  - { offset: 0x14A74, size: 0x8, addend: 0x0, symName: __ZNKSt3__117__compressed_pairINS_12basic_stringIcNS_11char_traitsIcEENS_9allocatorIcEEE5__repES5_E5firstB8ne180100Ev, symObjAddr: 0x6348, symBinAddr: 0x10000DB8C, symSize: 0x24 }
  - { offset: 0x14A9A, size: 0x8, addend: 0x0, symName: __ZNKSt3__122__compressed_pair_elemINS_12basic_stringIcNS_11char_traitsIcEENS_9allocatorIcEEE5__repELi0ELb0EE5__getB8ne180100Ev, symObjAddr: 0x636C, symBinAddr: 0x10000DBB0, symSize: 0x14 }
  - { offset: 0x14AC0, size: 0x8, addend: 0x0, symName: __ZNSt3__117__compressed_pairINS_12basic_stringIcNS_11char_traitsIcEENS_9allocatorIcEEE5__repES5_E5firstB8ne180100Ev, symObjAddr: 0x6380, symBinAddr: 0x10000DBC4, symSize: 0x24 }
  - { offset: 0x14AE6, size: 0x8, addend: 0x0, symName: __ZNSt3__122__compressed_pair_elemINS_12basic_stringIcNS_11char_traitsIcEENS_9allocatorIcEEE5__repELi0ELb0EE5__getB8ne180100Ev, symObjAddr: 0x63A4, symBinAddr: 0x10000DBE8, symSize: 0x14 }
  - { offset: 0x14B0C, size: 0x8, addend: 0x0, symName: __ZNSt3__114pointer_traitsIPcE10pointer_toB8ne180100ERc, symObjAddr: 0x63B8, symBinAddr: 0x10000DBFC, symSize: 0x14 }
  - { offset: 0x14B2F, size: 0x8, addend: 0x0, symName: __ZNSt3__119ostreambuf_iteratorIcNS_11char_traitsIcEEEC2B8ne180100ERNS_13basic_ostreamIcS2_EE, symObjAddr: 0x63CC, symBinAddr: 0x10000DC10, symSize: 0x54 }
  - { offset: 0x14B67, size: 0x8, addend: 0x0, symName: __ZNKSt3__19basic_iosIcNS_11char_traitsIcEEE5rdbufB8ne180100Ev, symObjAddr: 0x6420, symBinAddr: 0x10000DC64, symSize: 0x24 }
  - { offset: 0x14B8D, size: 0x8, addend: 0x0, symName: __ZNKSt3__18ios_base5rdbufB8ne180100Ev, symObjAddr: 0x6444, symBinAddr: 0x10000DC88, symSize: 0x18 }
  - { offset: 0x14BB3, size: 0x8, addend: 0x0, symName: __ZNSt3__111char_traitsIcE11eq_int_typeB8ne180100Eii, symObjAddr: 0x645C, symBinAddr: 0x10000DCA0, symSize: 0x24 }
  - { offset: 0x14BE6, size: 0x8, addend: 0x0, symName: __ZNSt3__111char_traitsIcE3eofB8ne180100Ev, symObjAddr: 0x6480, symBinAddr: 0x10000DCC4, symSize: 0x8 }
  - { offset: 0x14BFA, size: 0x8, addend: 0x0, symName: __ZNKSt3__19basic_iosIcNS_11char_traitsIcEEE5widenB8ne180100Ec, symObjAddr: 0x6488, symBinAddr: 0x10000DCCC, symSize: 0x84 }
  - { offset: 0x14C6C, size: 0x8, addend: 0x0, symName: __ZNKSt3__15ctypeIcE5widenB8ne180100Ec, symObjAddr: 0x6538, symBinAddr: 0x10000DD7C, symSize: 0x38 }
  - { offset: 0x14CA1, size: 0x8, addend: 0x0, symName: __ZNSt3__18ios_base8setstateB8ne180100Ej, symObjAddr: 0x6570, symBinAddr: 0x10000DDB4, symSize: 0x34 }
  - { offset: 0x14CD8, size: 0x8, addend: 0x0, symName: __ZNK21AdjMatrixUndirNetworkIciE9GetVexNumEv, symObjAddr: 0x65C8, symBinAddr: 0x10000DE0C, symSize: 0x18 }
  - { offset: 0x14CFE, size: 0x8, addend: 0x0, symName: __ZNSt3__113basic_ostreamIcNS_11char_traitsIcEEElsB8ne180100EPFRS3_S4_E, symObjAddr: 0x65E0, symBinAddr: 0x10000DE24, symSize: 0x2C }
  - { offset: 0x14D32, size: 0x8, addend: 0x0, symName: __ZNSt3__16vectorIiNS_9allocatorIiEEEC1Em, symObjAddr: 0x6664, symBinAddr: 0x10000DEA8, symSize: 0x34 }
  - { offset: 0x14D6D, size: 0x8, addend: 0x0, symName: __ZNK21AdjMatrixUndirNetworkIciE6SetTagEib, symObjAddr: 0x6698, symBinAddr: 0x10000DEDC, symSize: 0xA8 }
  - { offset: 0x14DAE, size: 0x8, addend: 0x0, symName: __Z9MinVertexIciEiRK21AdjMatrixUndirNetworkIT_T0_ERKNSt3__16vectorIiNS6_9allocatorIiEEEE, symObjAddr: 0x6740, symBinAddr: 0x10000DF84, symSize: 0x1F8 }
  - { offset: 0x14E4F, size: 0x8, addend: 0x0, symName: __ZNK21AdjMatrixUndirNetworkIciE9GetWeightEii, symObjAddr: 0x6938, symBinAddr: 0x10000E17C, symSize: 0xC4 }
  - { offset: 0x14E91, size: 0x8, addend: 0x0, symName: __ZNK21AdjMatrixUndirNetworkIciE11FirstAdjVexEi, symObjAddr: 0x69FC, symBinAddr: 0x10000E240, symSize: 0xBC }
  - { offset: 0x14EE1, size: 0x8, addend: 0x0, symName: __ZNK21AdjMatrixUndirNetworkIciE6GetTagEi, symObjAddr: 0x6AB8, symBinAddr: 0x10000E2FC, symSize: 0xB4 }
  - { offset: 0x14F15, size: 0x8, addend: 0x0, symName: __ZNK21AdjMatrixUndirNetworkIciE10NextAdjVexEii, symObjAddr: 0x6B6C, symBinAddr: 0x10000E3B0, symSize: 0xDC }
  - { offset: 0x14F73, size: 0x8, addend: 0x0, symName: __ZNSt3__16vectorIiNS_9allocatorIiEEEC2Em, symObjAddr: 0x6C48, symBinAddr: 0x10000E48C, symSize: 0xD0 }
  - { offset: 0x14FC3, size: 0x8, addend: 0x0, symName: __ZNSt3__16vectorIiNS_9allocatorIiEEE18__construct_at_endEm, symObjAddr: 0x6D18, symBinAddr: 0x10000E55C, symSize: 0xC4 }
  - { offset: 0x15035, size: 0x8, addend: 0x0, symName: __ZNSt3__116allocator_traitsINS_9allocatorIiEEE9constructB8ne180100IiJEvEEvRS2_PT_DpOT0_, symObjAddr: 0x6DDC, symBinAddr: 0x10000E620, symSize: 0x2C }
  - { offset: 0x15077, size: 0x8, addend: 0x0, symName: __ZNSt3__19allocatorIiE9constructB8ne180100IiJEEEvPT_DpOT0_, symObjAddr: 0x6E08, symBinAddr: 0x10000E64C, symSize: 0x1C }
  - { offset: 0x150B9, size: 0x8, addend: 0x0, symName: __ZNSt3__16vectorIbNS_9allocatorIbEEEixB8ne180100Em, symObjAddr: 0x6E24, symBinAddr: 0x10000E668, symSize: 0x3C }
  - { offset: 0x150EE, size: 0x8, addend: 0x0, symName: __ZNSt3__115__bit_referenceINS_6vectorIbNS_9allocatorIbEEEELb1EEaSB8ne180100Eb, symObjAddr: 0x6E60, symBinAddr: 0x10000E6A4, symSize: 0x64 }
  - { offset: 0x15122, size: 0x8, addend: 0x0, symName: __ZNSt3__16vectorIbNS_9allocatorIbEEE10__make_refB8ne180100Em, symObjAddr: 0x6EC4, symBinAddr: 0x10000E708, symSize: 0x60 }
  - { offset: 0x15157, size: 0x8, addend: 0x0, symName: __ZNSt3__115__bit_referenceINS_6vectorIbNS_9allocatorIbEEEELb1EEC1B8ne180100EPmm, symObjAddr: 0x6F24, symBinAddr: 0x10000E768, symSize: 0x3C }
  - { offset: 0x1519D, size: 0x8, addend: 0x0, symName: __ZNSt3__115__bit_referenceINS_6vectorIbNS_9allocatorIbEEEELb1EEC2B8ne180100EPmm, symObjAddr: 0x6F60, symBinAddr: 0x10000E7A4, symSize: 0x2C }
  - { offset: 0x151E3, size: 0x8, addend: 0x0, symName: __ZNKSt3__16vectorIiNS_9allocatorIiEEEixB8ne180100Em, symObjAddr: 0x6F8C, symBinAddr: 0x10000E7D0, symSize: 0x24 }
  - { offset: 0x1521A, size: 0x8, addend: 0x0, symName: __ZNKSt3__16vectorINS0_IiNS_9allocatorIiEEEENS1_IS3_EEEixB8ne180100Em, symObjAddr: 0x6FB0, symBinAddr: 0x10000E7F4, symSize: 0x2C }
  - { offset: 0x15251, size: 0x8, addend: 0x0, symName: __ZNKSt3__115__bit_referenceINS_6vectorIbNS_9allocatorIbEEEELb1EEcvbB8ne180100Ev, symObjAddr: 0x6FDC, symBinAddr: 0x10000E820, symSize: 0x28 }
  - { offset: 0x15277, size: 0x8, addend: 0x0, symName: __ZNSt3__16vectorI11KruskalEdgeIiENS_9allocatorIS2_EEEC1B8ne180100Ev, symObjAddr: 0x7004, symBinAddr: 0x10000E848, symSize: 0x2C }
  - { offset: 0x152A1, size: 0x8, addend: 0x0, symName: __ZNSt3__16vectorI11KruskalEdgeIiENS_9allocatorIS2_EEE9push_backB8ne180100EOS2_, symObjAddr: 0x7030, symBinAddr: 0x10000E874, symSize: 0x8C }
  - { offset: 0x152E5, size: 0x8, addend: 0x0, symName: __ZNSt3__16vectorI11KruskalEdgeIiENS_9allocatorIS2_EEE5beginB8ne180100Ev, symObjAddr: 0x70FC, symBinAddr: 0x10000E940, symSize: 0x30 }
  - { offset: 0x1530B, size: 0x8, addend: 0x0, symName: __ZNSt3__16vectorI11KruskalEdgeIiENS_9allocatorIS2_EEE3endB8ne180100Ev, symObjAddr: 0x712C, symBinAddr: 0x10000E970, symSize: 0x30 }
  - { offset: 0x153AE, size: 0x8, addend: 0x0, symName: __ZN11DisjointSetC1Ei, symObjAddr: 0x715C, symBinAddr: 0x10000E9A0, symSize: 0x34 }
  - { offset: 0x153E6, size: 0x8, addend: 0x0, symName: __ZNKSt3__111__wrap_iterIP11KruskalEdgeIiEEdeB8ne180100Ev, symObjAddr: 0x71C0, symBinAddr: 0x10000EA04, symSize: 0x18 }
  - { offset: 0x1540C, size: 0x8, addend: 0x0, symName: __ZN11DisjointSet4FindEi, symObjAddr: 0x71D8, symBinAddr: 0x10000EA1C, symSize: 0x94 }
  - { offset: 0x15440, size: 0x8, addend: 0x0, symName: __ZN11DisjointSet5UnionEii, symObjAddr: 0x726C, symBinAddr: 0x10000EAB0, symSize: 0x15C }
  - { offset: 0x15482, size: 0x8, addend: 0x0, symName: __ZNSt3__111__wrap_iterIP11KruskalEdgeIiEEppB8ne180100Ev, symObjAddr: 0x73C8, symBinAddr: 0x10000EC0C, symSize: 0x20 }
  - { offset: 0x154A8, size: 0x8, addend: 0x0, symName: __ZN11DisjointSetD1Ev, symObjAddr: 0x73E8, symBinAddr: 0x10000EC2C, symSize: 0x2C }
  - { offset: 0x154D4, size: 0x8, addend: 0x0, symName: __ZNSt3__16vectorI11KruskalEdgeIiENS_9allocatorIS2_EEED1B8ne180100Ev, symObjAddr: 0x7414, symBinAddr: 0x10000EC58, symSize: 0x2C }
  - { offset: 0x154FE, size: 0x8, addend: 0x0, symName: __ZNSt3__16vectorI11KruskalEdgeIiENS_9allocatorIS2_EEEC2B8ne180100Ev, symObjAddr: 0x7440, symBinAddr: 0x10000EC84, symSize: 0x4C }
  - { offset: 0x15528, size: 0x8, addend: 0x0, symName: __ZNSt3__117__compressed_pairIP11KruskalEdgeIiENS_9allocatorIS2_EEEC1B8ne180100IDnNS_18__default_init_tagEEEOT_OT0_, symObjAddr: 0x748C, symBinAddr: 0x10000ECD0, symSize: 0x3C }
  - { offset: 0x15580, size: 0x8, addend: 0x0, symName: __ZNSt3__117__compressed_pairIP11KruskalEdgeIiENS_9allocatorIS2_EEEC2B8ne180100IDnNS_18__default_init_tagEEEOT_OT0_, symObjAddr: 0x74C8, symBinAddr: 0x10000ED0C, symSize: 0x40 }
  - { offset: 0x155D8, size: 0x8, addend: 0x0, symName: __ZNSt3__122__compressed_pair_elemIP11KruskalEdgeIiELi0ELb0EEC2B8ne180100IDnvEEOT_, symObjAddr: 0x7508, symBinAddr: 0x10000ED4C, symSize: 0x1C }
  - { offset: 0x1561A, size: 0x8, addend: 0x0, symName: __ZNSt3__122__compressed_pair_elemINS_9allocatorI11KruskalEdgeIiEEELi1ELb1EEC2B8ne180100ENS_18__default_init_tagE, symObjAddr: 0x7524, symBinAddr: 0x10000ED68, symSize: 0x2C }
  - { offset: 0x1564F, size: 0x8, addend: 0x0, symName: __ZNSt3__19allocatorI11KruskalEdgeIiEEC2B8ne180100Ev, symObjAddr: 0x7550, symBinAddr: 0x10000ED94, symSize: 0x2C }
  - { offset: 0x15679, size: 0x8, addend: 0x0, symName: __ZNSt3__116__non_trivial_ifILb1ENS_9allocatorI11KruskalEdgeIiEEEEC2B8ne180100Ev, symObjAddr: 0x757C, symBinAddr: 0x10000EDC0, symSize: 0x14 }
  - { offset: 0x156A3, size: 0x8, addend: 0x0, symName: __ZNSt3__16vectorI11KruskalEdgeIiENS_9allocatorIS2_EEE9__end_capB8ne180100Ev, symObjAddr: 0x7590, symBinAddr: 0x10000EDD4, symSize: 0x28 }
  - { offset: 0x156CE, size: 0x8, addend: 0x0, symName: __ZNSt3__16vectorI11KruskalEdgeIiENS_9allocatorIS2_EEE22__construct_one_at_endB8ne180100IJS2_EEEvDpOT_, symObjAddr: 0x75B8, symBinAddr: 0x10000EDFC, symSize: 0x90 }
  - { offset: 0x1571D, size: 0x8, addend: 0x0, symName: __ZNSt3__16vectorI11KruskalEdgeIiENS_9allocatorIS2_EEE21__push_back_slow_pathIS2_EEPS2_OT_, symObjAddr: 0x7648, symBinAddr: 0x10000EE8C, symSize: 0xE8 }
  - { offset: 0x15779, size: 0x8, addend: 0x0, symName: __ZNSt3__117__compressed_pairIP11KruskalEdgeIiENS_9allocatorIS2_EEE5firstB8ne180100Ev, symObjAddr: 0x7730, symBinAddr: 0x10000EF74, symSize: 0x24 }
  - { offset: 0x1579F, size: 0x8, addend: 0x0, symName: __ZNSt3__122__compressed_pair_elemIP11KruskalEdgeIiELi0ELb0EE5__getB8ne180100Ev, symObjAddr: 0x7754, symBinAddr: 0x10000EF98, symSize: 0x14 }
  - { offset: 0x157DE, size: 0x8, addend: 0x0, symName: __ZNSt3__16vectorI11KruskalEdgeIiENS_9allocatorIS2_EEE21_ConstructTransactionC1B8ne180100ERS5_m, symObjAddr: 0x7768, symBinAddr: 0x10000EFAC, symSize: 0x3C }
  - { offset: 0x15826, size: 0x8, addend: 0x0, symName: __ZNSt3__116allocator_traitsINS_9allocatorI11KruskalEdgeIiEEEE9constructB8ne180100IS3_JS3_EvEEvRS4_PT_DpOT0_, symObjAddr: 0x77A4, symBinAddr: 0x10000EFE8, symSize: 0x34 }
  - { offset: 0x1587D, size: 0x8, addend: 0x0, symName: __ZNSt3__16vectorI11KruskalEdgeIiENS_9allocatorIS2_EEE7__allocB8ne180100Ev, symObjAddr: 0x77D8, symBinAddr: 0x10000F01C, symSize: 0x28 }
  - { offset: 0x158A3, size: 0x8, addend: 0x0, symName: __ZNSt3__16vectorI11KruskalEdgeIiENS_9allocatorIS2_EEE21_ConstructTransactionD1B8ne180100Ev, symObjAddr: 0x7814, symBinAddr: 0x10000F058, symSize: 0x2C }
  - { offset: 0x158CD, size: 0x8, addend: 0x0, symName: __ZNSt3__16vectorI11KruskalEdgeIiENS_9allocatorIS2_EEE21_ConstructTransactionC2B8ne180100ERS5_m, symObjAddr: 0x7840, symBinAddr: 0x10000F084, symSize: 0x4C }
  - { offset: 0x15915, size: 0x8, addend: 0x0, symName: __ZNSt3__19allocatorI11KruskalEdgeIiEE9constructB8ne180100IS2_JS2_EEEvPT_DpOT0_, symObjAddr: 0x788C, symBinAddr: 0x10000F0D0, symSize: 0x30 }
  - { offset: 0x1596B, size: 0x8, addend: 0x0, symName: __ZNSt3__117__compressed_pairIP11KruskalEdgeIiENS_9allocatorIS2_EEE6secondB8ne180100Ev, symObjAddr: 0x78BC, symBinAddr: 0x10000F100, symSize: 0x24 }
  - { offset: 0x15991, size: 0x8, addend: 0x0, symName: __ZNSt3__122__compressed_pair_elemINS_9allocatorI11KruskalEdgeIiEEELi1ELb1EE5__getB8ne180100Ev, symObjAddr: 0x78E0, symBinAddr: 0x10000F124, symSize: 0x14 }
  - { offset: 0x159B7, size: 0x8, addend: 0x0, symName: __ZNSt3__16vectorI11KruskalEdgeIiENS_9allocatorIS2_EEE21_ConstructTransactionD2B8ne180100Ev, symObjAddr: 0x78F4, symBinAddr: 0x10000F138, symSize: 0x20 }
  - { offset: 0x159E1, size: 0x8, addend: 0x0, symName: __ZNKSt3__16vectorI11KruskalEdgeIiENS_9allocatorIS2_EEE11__recommendB8ne180100Em, symObjAddr: 0x7914, symBinAddr: 0x10000F158, symSize: 0xAC }
  - { offset: 0x15A34, size: 0x8, addend: 0x0, symName: __ZNKSt3__16vectorI11KruskalEdgeIiENS_9allocatorIS2_EEE4sizeB8ne180100Ev, symObjAddr: 0x79C0, symBinAddr: 0x10000F204, symSize: 0x28 }
  - { offset: 0x15A5A, size: 0x8, addend: 0x0, symName: __ZNSt3__114__split_bufferI11KruskalEdgeIiERNS_9allocatorIS2_EEEC1EmmS5_, symObjAddr: 0x79E8, symBinAddr: 0x10000F22C, symSize: 0x44 }
  - { offset: 0x15AAE, size: 0x8, addend: 0x0, symName: __ZNSt3__114__split_bufferI11KruskalEdgeIiERNS_9allocatorIS2_EEED1Ev, symObjAddr: 0x7B3C, symBinAddr: 0x10000F380, symSize: 0x2C }
  - { offset: 0x15AD8, size: 0x8, addend: 0x0, symName: __ZNKSt3__16vectorI11KruskalEdgeIiENS_9allocatorIS2_EEE8max_sizeEv, symObjAddr: 0x7B68, symBinAddr: 0x10000F3AC, symSize: 0x60 }
  - { offset: 0x15AFE, size: 0x8, addend: 0x0, symName: __ZNKSt3__16vectorI11KruskalEdgeIiENS_9allocatorIS2_EEE20__throw_length_errorB8ne180100Ev, symObjAddr: 0x7BC8, symBinAddr: 0x10000F40C, symSize: 0x1C }
  - { offset: 0x15B24, size: 0x8, addend: 0x0, symName: __ZNKSt3__16vectorI11KruskalEdgeIiENS_9allocatorIS2_EEE8capacityB8ne180100Ev, symObjAddr: 0x7BE4, symBinAddr: 0x10000F428, symSize: 0x40 }
  - { offset: 0x15B54, size: 0x8, addend: 0x0, symName: __ZNSt3__116allocator_traitsINS_9allocatorI11KruskalEdgeIiEEEE8max_sizeB8ne180100IS4_vEEmRKS4_, symObjAddr: 0x7C50, symBinAddr: 0x10000F494, symSize: 0x24 }
  - { offset: 0x15B82, size: 0x8, addend: 0x0, symName: __ZNKSt3__16vectorI11KruskalEdgeIiENS_9allocatorIS2_EEE7__allocB8ne180100Ev, symObjAddr: 0x7C74, symBinAddr: 0x10000F4B8, symSize: 0x28 }
  - { offset: 0x15BA8, size: 0x8, addend: 0x0, symName: __ZNKSt3__19allocatorI11KruskalEdgeIiEE8max_sizeB8ne180100Ev, symObjAddr: 0x7C9C, symBinAddr: 0x10000F4E0, symSize: 0x18 }
  - { offset: 0x15BCE, size: 0x8, addend: 0x0, symName: __ZNKSt3__117__compressed_pairIP11KruskalEdgeIiENS_9allocatorIS2_EEE6secondB8ne180100Ev, symObjAddr: 0x7CB4, symBinAddr: 0x10000F4F8, symSize: 0x24 }
  - { offset: 0x15BF4, size: 0x8, addend: 0x0, symName: __ZNKSt3__122__compressed_pair_elemINS_9allocatorI11KruskalEdgeIiEEELi1ELb1EE5__getB8ne180100Ev, symObjAddr: 0x7CD8, symBinAddr: 0x10000F51C, symSize: 0x14 }
  - { offset: 0x15C1A, size: 0x8, addend: 0x0, symName: __ZNKSt3__16vectorI11KruskalEdgeIiENS_9allocatorIS2_EEE9__end_capB8ne180100Ev, symObjAddr: 0x7CEC, symBinAddr: 0x10000F530, symSize: 0x28 }
  - { offset: 0x15C40, size: 0x8, addend: 0x0, symName: __ZNKSt3__117__compressed_pairIP11KruskalEdgeIiENS_9allocatorIS2_EEE5firstB8ne180100Ev, symObjAddr: 0x7D14, symBinAddr: 0x10000F558, symSize: 0x24 }
  - { offset: 0x15C66, size: 0x8, addend: 0x0, symName: __ZNKSt3__122__compressed_pair_elemIP11KruskalEdgeIiELi0ELb0EE5__getB8ne180100Ev, symObjAddr: 0x7D38, symBinAddr: 0x10000F57C, symSize: 0x14 }
  - { offset: 0x15C8C, size: 0x8, addend: 0x0, symName: __ZNSt3__114__split_bufferI11KruskalEdgeIiERNS_9allocatorIS2_EEEC2EmmS5_, symObjAddr: 0x7DA0, symBinAddr: 0x10000F5E4, symSize: 0xD8 }
  - { offset: 0x15CFD, size: 0x8, addend: 0x0, symName: __ZNSt3__117__compressed_pairIP11KruskalEdgeIiERNS_9allocatorIS2_EEEC1B8ne180100IDnS6_EEOT_OT0_, symObjAddr: 0x7E78, symBinAddr: 0x10000F6BC, symSize: 0x3C }
  - { offset: 0x15D55, size: 0x8, addend: 0x0, symName: __ZNSt3__114__split_bufferI11KruskalEdgeIiERNS_9allocatorIS2_EEE7__allocB8ne180100Ev, symObjAddr: 0x7EF4, symBinAddr: 0x10000F738, symSize: 0x28 }
  - { offset: 0x15D7B, size: 0x8, addend: 0x0, symName: __ZNSt3__114__split_bufferI11KruskalEdgeIiERNS_9allocatorIS2_EEE9__end_capB8ne180100Ev, symObjAddr: 0x7F1C, symBinAddr: 0x10000F760, symSize: 0x28 }
  - { offset: 0x15DA1, size: 0x8, addend: 0x0, symName: __ZNSt3__117__compressed_pairIP11KruskalEdgeIiERNS_9allocatorIS2_EEEC2B8ne180100IDnS6_EEOT_OT0_, symObjAddr: 0x7F44, symBinAddr: 0x10000F788, symSize: 0x48 }
  - { offset: 0x15DF9, size: 0x8, addend: 0x0, symName: __ZNSt3__122__compressed_pair_elemIRNS_9allocatorI11KruskalEdgeIiEEELi1ELb0EEC2B8ne180100IS5_vEEOT_, symObjAddr: 0x7F8C, symBinAddr: 0x10000F7D0, symSize: 0x20 }
  - { offset: 0x15E3B, size: 0x8, addend: 0x0, symName: __ZNSt3__19allocatorI11KruskalEdgeIiEE8allocateB8ne180100Em, symObjAddr: 0x7FAC, symBinAddr: 0x10000F7F0, symSize: 0x58 }
  - { offset: 0x15E6F, size: 0x8, addend: 0x0, symName: __ZNSt3__117__compressed_pairIP11KruskalEdgeIiERNS_9allocatorIS2_EEE6secondB8ne180100Ev, symObjAddr: 0x8004, symBinAddr: 0x10000F848, symSize: 0x28 }
  - { offset: 0x15E95, size: 0x8, addend: 0x0, symName: __ZNSt3__122__compressed_pair_elemIRNS_9allocatorI11KruskalEdgeIiEEELi1ELb0EE5__getB8ne180100Ev, symObjAddr: 0x802C, symBinAddr: 0x10000F870, symSize: 0x18 }
  - { offset: 0x15EBB, size: 0x8, addend: 0x0, symName: __ZNSt3__117__compressed_pairIP11KruskalEdgeIiERNS_9allocatorIS2_EEE5firstB8ne180100Ev, symObjAddr: 0x8044, symBinAddr: 0x10000F888, symSize: 0x24 }
  - { offset: 0x15EE1, size: 0x8, addend: 0x0, symName: __ZNKSt3__16vectorI11KruskalEdgeIiENS_9allocatorIS2_EEE17__annotate_deleteB8ne180100Ev, symObjAddr: 0x8068, symBinAddr: 0x10000F8AC, symSize: 0x10 }
  - { offset: 0x15F07, size: 0x8, addend: 0x0, symName: __ZNSt3__116reverse_iteratorIP11KruskalEdgeIiEEC1B8ne180100ES3_, symObjAddr: 0x80F0, symBinAddr: 0x10000F934, symSize: 0x34 }
  - { offset: 0x15F3F, size: 0x8, addend: 0x0, symName: __ZNKSt3__116reverse_iteratorIP11KruskalEdgeIiEE4baseB8ne180100Ev, symObjAddr: 0x8124, symBinAddr: 0x10000F968, symSize: 0x18 }
  - { offset: 0x15F65, size: 0x8, addend: 0x0, symName: __ZNKSt3__16vectorI11KruskalEdgeIiENS_9allocatorIS2_EEE14__annotate_newB8ne180100Em, symObjAddr: 0x8178, symBinAddr: 0x10000F9BC, symSize: 0x14 }
  - { offset: 0x15FBD, size: 0x8, addend: 0x0, symName: __ZNKSt3__111__move_loopINS_17_ClassicAlgPolicyEEclB8ne180100INS_16reverse_iteratorIP11KruskalEdgeIiEEES8_S8_EENS_4pairIT_T1_EESA_T0_SB_, symObjAddr: 0x847C, symBinAddr: 0x10000FCC0, symSize: 0xA8 }
  - { offset: 0x1602D, size: 0x8, addend: 0x0, symName: __ZNSt3__18_IterOpsINS_17_ClassicAlgPolicyEE11__iter_moveB8ne180100IRNS_16reverse_iteratorIP11KruskalEdgeIiEEETnNS_9enable_ifIXsr12is_referenceIDTdeclsr3stdE7declvalIRT_EEEEE5valueEiE4typeELi0EEEDTclsr3stdE4movedeclsr3stdE7declvalISC_EEEEOSB_, symObjAddr: 0x86B4, symBinAddr: 0x10000FEF8, symSize: 0x28 }
  - { offset: 0x1605F, size: 0x8, addend: 0x0, symName: __ZNKSt3__116reverse_iteratorIP11KruskalEdgeIiEEdeB8ne180100Ev, symObjAddr: 0x86DC, symBinAddr: 0x10000FF20, symSize: 0x28 }
  - { offset: 0x16093, size: 0x8, addend: 0x0, symName: __ZNSt3__116reverse_iteratorIP11KruskalEdgeIiEEppB8ne180100Ev, symObjAddr: 0x8704, symBinAddr: 0x10000FF48, symSize: 0x20 }
  - { offset: 0x160B9, size: 0x8, addend: 0x0, symName: __ZNSt3__18_IterOpsINS_17_ClassicAlgPolicyEE25__validate_iter_referenceB8ne180100IRNS_16reverse_iteratorIP11KruskalEdgeIiEEEEEvv, symObjAddr: 0x8724, symBinAddr: 0x10000FF68, symSize: 0x4 }
  - { offset: 0x160D7, size: 0x8, addend: 0x0, symName: __ZNSt3__118__unwrap_iter_implINS_16reverse_iteratorIP11KruskalEdgeIiEEELb0EE8__unwrapB8ne180100ES5_, symObjAddr: 0x8728, symBinAddr: 0x10000FF6C, symSize: 0x24 }
  - { offset: 0x160FF, size: 0x8, addend: 0x0, symName: __ZNSt3__14pairINS_16reverse_iteratorIP11KruskalEdgeIiEEES5_EC1B8ne180100IS5_S5_TnNS_9enable_ifIXclsr10_CheckArgsE17__enable_implicitIT_T0_EEEiE4typeELi0EEEOS9_OSA_, symObjAddr: 0x874C, symBinAddr: 0x10000FF90, symSize: 0x3C }
  - { offset: 0x1615D, size: 0x8, addend: 0x0, symName: __ZNSt3__14pairINS_16reverse_iteratorIP11KruskalEdgeIiEEES5_EC2B8ne180100IS5_S5_TnNS_9enable_ifIXclsr10_CheckArgsE17__enable_implicitIT_T0_EEEiE4typeELi0EEEOS9_OSA_, symObjAddr: 0x8788, symBinAddr: 0x10000FFCC, symSize: 0x34 }
  - { offset: 0x161BB, size: 0x8, addend: 0x0, symName: __ZNSt3__118__unwrap_iter_implINS_16reverse_iteratorIP11KruskalEdgeIiEEELb0EE8__rewrapB8ne180100ES5_S5_, symObjAddr: 0x87BC, symBinAddr: 0x100010000, symSize: 0x2C }
  - { offset: 0x161E9, size: 0x8, addend: 0x0, symName: __ZNSt3__116reverse_iteratorIP11KruskalEdgeIiEEC2B8ne180100ES3_, symObjAddr: 0x87E8, symBinAddr: 0x10001002C, symSize: 0x28 }
  - { offset: 0x16221, size: 0x8, addend: 0x0, symName: __ZNSt3__114__split_bufferI11KruskalEdgeIiERNS_9allocatorIS2_EEED2Ev, symObjAddr: 0x8810, symBinAddr: 0x100010054, symSize: 0x84 }
  - { offset: 0x1624B, size: 0x8, addend: 0x0, symName: __ZNSt3__114__split_bufferI11KruskalEdgeIiERNS_9allocatorIS2_EEE5clearB8ne180100Ev, symObjAddr: 0x8894, symBinAddr: 0x1000100D8, symSize: 0x28 }
  - { offset: 0x16271, size: 0x8, addend: 0x0, symName: __ZNSt3__116allocator_traitsINS_9allocatorI11KruskalEdgeIiEEEE10deallocateB8ne180100ERS4_PS3_m, symObjAddr: 0x88BC, symBinAddr: 0x100010100, symSize: 0x34 }
  - { offset: 0x162B3, size: 0x8, addend: 0x0, symName: __ZNKSt3__114__split_bufferI11KruskalEdgeIiERNS_9allocatorIS2_EEE8capacityB8ne180100Ev, symObjAddr: 0x88F0, symBinAddr: 0x100010134, symSize: 0x40 }
  - { offset: 0x162D9, size: 0x8, addend: 0x0, symName: __ZNSt3__114__split_bufferI11KruskalEdgeIiERNS_9allocatorIS2_EEE17__destruct_at_endB8ne180100EPS2_, symObjAddr: 0x8930, symBinAddr: 0x100010174, symSize: 0x2C }
  - { offset: 0x1630D, size: 0x8, addend: 0x0, symName: __ZNSt3__114__split_bufferI11KruskalEdgeIiERNS_9allocatorIS2_EEE17__destruct_at_endB8ne180100EPS2_NS_17integral_constantIbLb0EEE, symObjAddr: 0x895C, symBinAddr: 0x1000101A0, symSize: 0x7C }
  - { offset: 0x1634C, size: 0x8, addend: 0x0, symName: __ZNSt3__116allocator_traitsINS_9allocatorI11KruskalEdgeIiEEEE7destroyB8ne180100IS3_vEEvRS4_PT_, symObjAddr: 0x89D8, symBinAddr: 0x10001021C, symSize: 0x2C }
  - { offset: 0x16389, size: 0x8, addend: 0x0, symName: __ZNSt3__19allocatorI11KruskalEdgeIiEE7destroyB8ne180100EPS2_, symObjAddr: 0x8A04, symBinAddr: 0x100010248, symSize: 0x14 }
  - { offset: 0x163BD, size: 0x8, addend: 0x0, symName: __ZNSt3__19allocatorI11KruskalEdgeIiEE10deallocateB8ne180100EPS2_m, symObjAddr: 0x8A18, symBinAddr: 0x10001025C, symSize: 0x44 }
  - { offset: 0x163FF, size: 0x8, addend: 0x0, symName: __ZNKSt3__114__split_bufferI11KruskalEdgeIiERNS_9allocatorIS2_EEE9__end_capB8ne180100Ev, symObjAddr: 0x8A5C, symBinAddr: 0x1000102A0, symSize: 0x28 }
  - { offset: 0x16425, size: 0x8, addend: 0x0, symName: __ZNKSt3__117__compressed_pairIP11KruskalEdgeIiERNS_9allocatorIS2_EEE5firstB8ne180100Ev, symObjAddr: 0x8A84, symBinAddr: 0x1000102C8, symSize: 0x24 }
  - { offset: 0x16455, size: 0x8, addend: 0x0, symName: __ZZ19MiniSpanTreeKruskalIciEvRK21AdjMatrixUndirNetworkIT_T0_EENKUlRK11KruskalEdgeIiES9_E_clES9_S9_, symObjAddr: 0x90EC, symBinAddr: 0x100010930, symSize: 0x30 }
  - { offset: 0x1649B, size: 0x8, addend: 0x0, symName: __ZNSt3__18_IterOpsINS_17_ClassicAlgPolicyEE9iter_swapB8ne180100IRP11KruskalEdgeIiES7_EEvOT_OT0_, symObjAddr: 0x911C, symBinAddr: 0x100010960, symSize: 0x34 }
  - { offset: 0x164E3, size: 0x8, addend: 0x0, symName: __ZNSt3__18_IterOpsINS_17_ClassicAlgPolicyEE9iter_swapB8ne180100IRP11KruskalEdgeIiES6_EEvOT_OT0_, symObjAddr: 0x967C, symBinAddr: 0x100010EC0, symSize: 0x34 }
  - { offset: 0x16526, size: 0x8, addend: 0x0, symName: __ZNSt3__18_IterOpsINS_17_ClassicAlgPolicyEE11__iter_moveB8ne180100IRP11KruskalEdgeIiETnNS_9enable_ifIXsr12is_referenceIDTdeclsr3stdE7declvalIRT_EEEEE5valueEiE4typeELi0EEEDTclsr3stdE4movedeclsr3stdE7declvalISA_EEEEOS9_, symObjAddr: 0xA338, symBinAddr: 0x100011B7C, symSize: 0x28 }
  - { offset: 0x16558, size: 0x8, addend: 0x0, symName: __ZNSt3__18_IterOpsINS_17_ClassicAlgPolicyEE25__validate_iter_referenceB8ne180100IRP11KruskalEdgeIiEEEvv, symObjAddr: 0xA360, symBinAddr: 0x100011BA4, symSize: 0x4 }
  - { offset: 0x16576, size: 0x8, addend: 0x0, symName: __ZNSt3__18_IterOpsINS_17_ClassicAlgPolicyEE4nextB8ne180100IP11KruskalEdgeIiEEET_S7_S7_, symObjAddr: 0xA364, symBinAddr: 0x100011BA8, symSize: 0x18 }
  - { offset: 0x165AD, size: 0x8, addend: 0x0, symName: __ZNSt3__18_IterOpsINS_17_ClassicAlgPolicyEE9iter_swapB8ne180100IP11KruskalEdgeIiES6_EEvOT_OT0_, symObjAddr: 0xB284, symBinAddr: 0x100012AC8, symSize: 0x34 }
  - { offset: 0x16609, size: 0x8, addend: 0x0, symName: __ZNSt3__14pairIP11KruskalEdgeIiEbEC1B8ne180100IRS3_RbTnNS_9enable_ifIXclsr10_CheckArgsE17__enable_implicitIT_T0_EEEiE4typeELi0EEEOS9_OSA_, symObjAddr: 0xB2D4, symBinAddr: 0x100012B18, symSize: 0x3C }
  - { offset: 0x16667, size: 0x8, addend: 0x0, symName: __ZNSt3__14pairIP11KruskalEdgeIiEbEC2B8ne180100IRS3_RbTnNS_9enable_ifIXclsr10_CheckArgsE17__enable_implicitIT_T0_EEEiE4typeELi0EEEOS9_OSA_, symObjAddr: 0xB310, symBinAddr: 0x100012B54, symSize: 0x38 }
  - { offset: 0x166C5, size: 0x8, addend: 0x0, symName: __ZNSt3__118__unwrap_iter_implINS_11__wrap_iterIP11KruskalEdgeIiEEELb1EE8__unwrapB8ne180100ES5_, symObjAddr: 0xB348, symBinAddr: 0x100012B8C, symSize: 0x28 }
  - { offset: 0x166F2, size: 0x8, addend: 0x0, symName: __ZNSt3__119__to_address_helperINS_11__wrap_iterIP11KruskalEdgeIiEEEvE6__callB8ne180100ERKS5_, symObjAddr: 0xB394, symBinAddr: 0x100012BD8, symSize: 0x30 }
  - { offset: 0x16715, size: 0x8, addend: 0x0, symName: __ZNSt3__114pointer_traitsINS_11__wrap_iterIP11KruskalEdgeIiEEEE10to_addressB8ne180100ES5_, symObjAddr: 0xB3C4, symBinAddr: 0x100012C08, symSize: 0x2C }
  - { offset: 0x16738, size: 0x8, addend: 0x0, symName: __ZNKSt3__111__wrap_iterIP11KruskalEdgeIiEE4baseB8ne180100Ev, symObjAddr: 0xB3F0, symBinAddr: 0x100012C34, symSize: 0x18 }
  - { offset: 0x1675E, size: 0x8, addend: 0x0, symName: __ZNSt3__16vectorI11KruskalEdgeIiENS_9allocatorIS2_EEE11__make_iterB8ne180100EPS2_, symObjAddr: 0xB408, symBinAddr: 0x100012C4C, symSize: 0x30 }
  - { offset: 0x16793, size: 0x8, addend: 0x0, symName: __ZNSt3__111__wrap_iterIP11KruskalEdgeIiEEC1B8ne180100ES3_, symObjAddr: 0xB438, symBinAddr: 0x100012C7C, symSize: 0x34 }
  - { offset: 0x167CB, size: 0x8, addend: 0x0, symName: __ZNSt3__111__wrap_iterIP11KruskalEdgeIiEEC2B8ne180100ES3_, symObjAddr: 0xB46C, symBinAddr: 0x100012CB0, symSize: 0x20 }
  - { offset: 0x16803, size: 0x8, addend: 0x0, symName: __ZN11DisjointSetC2Ei, symObjAddr: 0xB48C, symBinAddr: 0x100012CD0, symSize: 0xC4 }
  - { offset: 0x16857, size: 0x8, addend: 0x0, symName: __ZN11DisjointSetD2Ev, symObjAddr: 0xB594, symBinAddr: 0x100012DD8, symSize: 0x38 }
  - { offset: 0x16883, size: 0x8, addend: 0x0, symName: __ZNSt3__16vectorI11KruskalEdgeIiENS_9allocatorIS2_EEED2B8ne180100Ev, symObjAddr: 0xB5CC, symBinAddr: 0x100012E10, symSize: 0x44 }
  - { offset: 0x168AD, size: 0x8, addend: 0x0, symName: __ZNSt3__16vectorI11KruskalEdgeIiENS_9allocatorIS2_EEE16__destroy_vectorC1B8ne180100ERS5_, symObjAddr: 0xB610, symBinAddr: 0x100012E54, symSize: 0x34 }
  - { offset: 0x168E6, size: 0x8, addend: 0x0, symName: __ZNSt3__16vectorI11KruskalEdgeIiENS_9allocatorIS2_EEE16__destroy_vectorclB8ne180100Ev, symObjAddr: 0xB644, symBinAddr: 0x100012E88, symSize: 0x88 }
  - { offset: 0x1690C, size: 0x8, addend: 0x0, symName: __ZNSt3__16vectorI11KruskalEdgeIiENS_9allocatorIS2_EEE16__destroy_vectorC2B8ne180100ERS5_, symObjAddr: 0xB6CC, symBinAddr: 0x100012F10, symSize: 0x20 }
  - { offset: 0x16945, size: 0x8, addend: 0x0, symName: __ZNSt3__16vectorI11KruskalEdgeIiENS_9allocatorIS2_EEE7__clearB8ne180100Ev, symObjAddr: 0xB6EC, symBinAddr: 0x100012F30, symSize: 0x28 }
  - { offset: 0x1696B, size: 0x8, addend: 0x0, symName: __ZNSt3__16vectorI11KruskalEdgeIiENS_9allocatorIS2_EEE22__base_destruct_at_endB8ne180100EPS2_, symObjAddr: 0xB714, symBinAddr: 0x100012F58, symSize: 0x88 }
...
