---
triple:          'arm64-apple-darwin'
binary-path:     "/Volumes/星舰雅请假记录/CPP学习（乐子版）/C项目/数据结构与算法/树/树和森林"
relocations:
  - { offset: 0x5C, size: 0x8, addend: 0x0, symName: __ZNSt3__119piecewise_constructE, symObjAddr: 0x368D, symBinAddr: 0x100007DA9, symSize: 0x0 }
  - { offset: 0x301F, size: 0x8, addend: 0x0, symName: __ZNSt3__124__put_character_sequenceB8ne180100IcNS_11char_traitsIcEEEERNS_13basic_ostreamIT_T0_EES7_PKS4_m, symObjAddr: 0x9E0, symBinAddr: 0x100004E8C, symSize: 0x1E8 }
  - { offset: 0x46E7, size: 0x8, addend: 0x0, symName: '__ZNSt3__110__function10__not_nullB8ne180100IZ4mainE3$_0EEbRKT_', symObjAddr: 0x1930, symBinAddr: 0x100005DDC, symSize: 0x18 }
  - { offset: 0x560C, size: 0x8, addend: 0x0, symName: __ZNSt3__1lsB8ne180100INS_11char_traitsIcEEEERNS_13basic_ostreamIcT_EES6_PKc, symObjAddr: 0x4E8, symBinAddr: 0x100004994, symSize: 0x48 }
  - { offset: 0x5652, size: 0x8, addend: 0x0, symName: __ZNSt3__1lsB8ne180100INS_11char_traitsIcEEEERNS_13basic_ostreamIcT_EES6_c, symObjAddr: 0x9AC, symBinAddr: 0x100004E58, symSize: 0x34 }
  - { offset: 0x5698, size: 0x8, addend: 0x0, symName: __ZNSt3__116__pad_and_outputB8ne180100IcNS_11char_traitsIcEEEENS_19ostreambuf_iteratorIT_T0_EES6_PKS4_S8_S8_RNS_8ios_baseES4_, symObjAddr: 0xBE4, symBinAddr: 0x100005090, symSize: 0x214 }
  - { offset: 0x5767, size: 0x8, addend: 0x0, symName: __ZNSt3__112__to_addressB8ne180100IcEEPT_S2_, symObjAddr: 0x112C, symBinAddr: 0x1000055D8, symSize: 0x14 }
  - { offset: 0x57CF, size: 0x8, addend: 0x0, symName: __ZNSt3__19use_facetB8ne180100INS_5ctypeIcEEEERKT_RKNS_6localeE, symObjAddr: 0x13DC, symBinAddr: 0x100005888, symSize: 0x2C }
  - { offset: 0x5C9C, size: 0x8, addend: 0x0, symName: __ZNSt3__118__constexpr_strlenB8ne180100EPKc, symObjAddr: 0x14D4, symBinAddr: 0x100005980, symSize: 0x24 }
  - { offset: 0x5CC8, size: 0x8, addend: 0x0, symName: __ZNSt3__125__throw_bad_function_callB8ne180100Ev, symObjAddr: 0x1620, symBinAddr: 0x100005ACC, symSize: 0x38 }
  - { offset: 0x5EAB, size: 0x8, addend: 0x0, symName: '__ZNSt3__116forward_as_tupleB8ne180100IJZ4mainE3$_0EEENS_5tupleIJDpOT_EEES5_', symObjAddr: 0x1EA8, symBinAddr: 0x100006354, symSize: 0x2C }
  - { offset: 0x5EE4, size: 0x8, addend: 0x0, symName: '__ZNSt3__116forward_as_tupleB8ne180100IJNS_9allocatorIZ4mainE3$_0EEEEENS_5tupleIJDpOT_EEES7_', symObjAddr: 0x1ED4, symBinAddr: 0x100006380, symSize: 0x2C }
  - { offset: 0x5F61, size: 0x8, addend: 0x0, symName: '__ZNSt3__13getB8ne180100ILm0EJOZ4mainE3$_0EEERNS_13tuple_elementIXT_ENS_5tupleIJDpT0_EEEE4typeERS7_', symObjAddr: 0x21EC, symBinAddr: 0x100006698, symSize: 0x24 }
  - { offset: 0x5FA3, size: 0x8, addend: 0x0, symName: '__ZNSt3__13getB8ne180100ILm0EJONS_9allocatorIZ4mainE3$_0EEEEERNS_13tuple_elementIXT_ENS_5tupleIJDpT0_EEEE4typeERS9_', symObjAddr: 0x2228, symBinAddr: 0x1000066D4, symSize: 0x24 }
  - { offset: 0x64C1, size: 0x8, addend: 0x0, symName: __ZNSt3__117__libcpp_allocateB8ne180100Emm, symObjAddr: 0x2508, symBinAddr: 0x1000069B4, symSize: 0x60 }
  - { offset: 0x651B, size: 0x8, addend: 0x0, symName: __ZNSt3__124__is_overaligned_for_newB8ne180100Em, symObjAddr: 0x257C, symBinAddr: 0x100006A28, symSize: 0x1C }
  - { offset: 0x6549, size: 0x8, addend: 0x0, symName: __ZNSt3__121__libcpp_operator_newB8ne180100IJmSt11align_val_tEEEPvDpT_, symObjAddr: 0x2598, symBinAddr: 0x100006A44, symSize: 0x2C }
  - { offset: 0x6596, size: 0x8, addend: 0x0, symName: __ZNSt3__121__libcpp_operator_newB8ne180100IJmEEEPvDpT_, symObjAddr: 0x25C4, symBinAddr: 0x100006A70, symSize: 0x24 }
  - { offset: 0x65CF, size: 0x8, addend: 0x0, symName: '__ZNSt3__116forward_as_tupleB8ne180100IJRKZ4mainE3$_0EEENS_5tupleIJDpOT_EEES7_', symObjAddr: 0x28B0, symBinAddr: 0x100006D5C, symSize: 0x2C }
  - { offset: 0x661D, size: 0x8, addend: 0x0, symName: '__ZNSt3__13getB8ne180100ILm0EJRKZ4mainE3$_0EEERNS_13tuple_elementIXT_ENS_5tupleIJDpT0_EEEE4typeERS8_', symObjAddr: 0x2AA0, symBinAddr: 0x100006F4C, symSize: 0x24 }
  - { offset: 0x665F, size: 0x8, addend: 0x0, symName: __ZNSt3__119__libcpp_deallocateB8ne180100EPvmm, symObjAddr: 0x2C98, symBinAddr: 0x100007144, symSize: 0x60 }
  - { offset: 0x66C4, size: 0x8, addend: 0x0, symName: __ZNSt3__127__do_deallocate_handle_sizeB8ne180100IJSt11align_val_tEEEvPvmDpT_, symObjAddr: 0x2CF8, symBinAddr: 0x1000071A4, symSize: 0x30 }
  - { offset: 0x6717, size: 0x8, addend: 0x0, symName: __ZNSt3__127__do_deallocate_handle_sizeB8ne180100IJEEEvPvmDpT_, symObjAddr: 0x2D28, symBinAddr: 0x1000071D4, symSize: 0x28 }
  - { offset: 0x6755, size: 0x8, addend: 0x0, symName: __ZNSt3__124__libcpp_operator_deleteB8ne180100IJPvSt11align_val_tEEEvDpT_, symObjAddr: 0x2D50, symBinAddr: 0x1000071FC, symSize: 0x2C }
  - { offset: 0x679E, size: 0x8, addend: 0x0, symName: __ZNSt3__124__libcpp_operator_deleteB8ne180100IJPvEEEvDpT_, symObjAddr: 0x2D7C, symBinAddr: 0x100007228, symSize: 0x24 }
  - { offset: 0x67D3, size: 0x8, addend: 0x0, symName: '__ZNSt3__116forward_as_tupleB8ne180100IJRKNS_9allocatorIZ4mainE3$_0EEEEENS_5tupleIJDpOT_EEES9_', symObjAddr: 0x2EF4, symBinAddr: 0x1000073A0, symSize: 0x2C }
  - { offset: 0x6821, size: 0x8, addend: 0x0, symName: '__ZNSt3__13getB8ne180100ILm0EJRKNS_9allocatorIZ4mainE3$_0EEEEERNS_13tuple_elementIXT_ENS_5tupleIJDpT0_EEEE4typeERSA_', symObjAddr: 0x30D8, symBinAddr: 0x100007584, symSize: 0x24 }
  - { offset: 0x68A0, size: 0x8, addend: 0x0, symName: '__ZNSt3__18__invokeB8ne180100IRZ4mainE3$_0JP5BNodeIcEEEEDTclclsr3stdE7declvalIT_EEspclsr3stdE7declvalIT0_EEEEOS6_DpOS7_', symObjAddr: 0x31A4, symBinAddr: 0x100007650, symSize: 0x30 }
  - { offset: 0x77AE, size: 0x8, addend: 0x0, symName: __ZSt28__throw_bad_array_new_lengthB8ne180100v, symObjAddr: 0x24D4, symBinAddr: 0x100006980, symSize: 0x34 }
  - { offset: 0x7C19, size: 0x8, addend: 0x0, symName: _main, symObjAddr: 0x0, symBinAddr: 0x1000044AC, symSize: 0x4B4 }
  - { offset: 0x810E, size: 0x8, addend: 0x0, symName: __ZN6GTNodeIcEC1ERKc, symObjAddr: 0x4B4, symBinAddr: 0x100004960, symSize: 0x34 }
  - { offset: 0x8146, size: 0x8, addend: 0x0, symName: __Z14PreOrderForestIcRFvRKcEEvP6GTNodeIT_EOT0_, symObjAddr: 0x530, symBinAddr: 0x1000049DC, symSize: 0x8C }
  - { offset: 0x81AC, size: 0x8, addend: 0x0, symName: __ZL10print_charRKc, symObjAddr: 0x5BC, symBinAddr: 0x100004A68, symSize: 0x38 }
  - { offset: 0x81D4, size: 0x8, addend: 0x0, symName: __Z14ForestToBinaryIcEP5BNodeIT_EP6GTNodeIS1_E, symObjAddr: 0x5F4, symBinAddr: 0x100004AA0, symSize: 0x118 }
  - { offset: 0x823D, size: 0x8, addend: 0x0, symName: '__ZNSt3__18functionIFvP5BNodeIcEEEC1IZ4mainE3$_0vEET_', symObjAddr: 0x70C, symBinAddr: 0x100004BB8, symSize: 0x34 }
  - { offset: 0x8280, size: 0x8, addend: 0x0, symName: __ZNKSt3__18functionIFvP5BNodeIcEEEclES3_, symObjAddr: 0x740, symBinAddr: 0x100004BEC, symSize: 0x30 }
  - { offset: 0x82B6, size: 0x8, addend: 0x0, symName: __Z14BinaryToForestIcEP6GTNodeIT_EP5BNodeIS1_E, symObjAddr: 0x770, symBinAddr: 0x100004C1C, symSize: 0x118 }
  - { offset: 0x831F, size: 0x8, addend: 0x0, symName: __Z13DestroyForestIcEvRP6GTNodeIT_E, symObjAddr: 0x888, symBinAddr: 0x100004D34, symSize: 0x7C }
  - { offset: 0x8351, size: 0x8, addend: 0x0, symName: __Z12DestroyBTreeIcEvRP5BNodeIT_E, symObjAddr: 0x904, symBinAddr: 0x100004DB0, symSize: 0x7C }
  - { offset: 0x8383, size: 0x8, addend: 0x0, symName: __ZNSt3__18functionIFvP5BNodeIcEEED1Ev, symObjAddr: 0x980, symBinAddr: 0x100004E2C, symSize: 0x2C }
  - { offset: 0x83D2, size: 0x8, addend: 0x0, symName: __ZNKSt3__113basic_ostreamIcNS_11char_traitsIcEEE6sentrycvbB8ne180100Ev, symObjAddr: 0xBC8, symBinAddr: 0x100005074, symSize: 0x1C }
  - { offset: 0x83F8, size: 0x8, addend: 0x0, symName: __ZNSt3__119ostreambuf_iteratorIcNS_11char_traitsIcEEEC1B8ne180100ERNS_13basic_ostreamIcS2_EE, symObjAddr: 0xDF8, symBinAddr: 0x1000052A4, symSize: 0x34 }
  - { offset: 0x8430, size: 0x8, addend: 0x0, symName: __ZNKSt3__18ios_base5flagsB8ne180100Ev, symObjAddr: 0xE2C, symBinAddr: 0x1000052D8, symSize: 0x18 }
  - { offset: 0x8458, size: 0x8, addend: 0x0, symName: __ZNKSt3__19basic_iosIcNS_11char_traitsIcEEE4fillB8ne180100Ev, symObjAddr: 0xE44, symBinAddr: 0x1000052F0, symSize: 0x64 }
  - { offset: 0x847E, size: 0x8, addend: 0x0, symName: __ZNKSt3__119ostreambuf_iteratorIcNS_11char_traitsIcEEE6failedB8ne180100Ev, symObjAddr: 0xEA8, symBinAddr: 0x100005354, symSize: 0x20 }
  - { offset: 0x84A4, size: 0x8, addend: 0x0, symName: __ZNSt3__19basic_iosIcNS_11char_traitsIcEEE8setstateB8ne180100Ej, symObjAddr: 0xEC8, symBinAddr: 0x100005374, symSize: 0x2C }
  - { offset: 0x84D9, size: 0x8, addend: 0x0, symName: __ZNKSt3__18ios_base5widthB8ne180100Ev, symObjAddr: 0xF04, symBinAddr: 0x1000053B0, symSize: 0x18 }
  - { offset: 0x8501, size: 0x8, addend: 0x0, symName: __ZNSt3__115basic_streambufIcNS_11char_traitsIcEEE5sputnB8ne180100EPKcl, symObjAddr: 0xF1C, symBinAddr: 0x1000053C8, symSize: 0x3C }
  - { offset: 0x8543, size: 0x8, addend: 0x0, symName: __ZNSt3__112basic_stringIcNS_11char_traitsIcEENS_9allocatorIcEEEC1B8ne180100Emc, symObjAddr: 0xF58, symBinAddr: 0x100005404, symSize: 0x3C }
  - { offset: 0x858B, size: 0x8, addend: 0x0, symName: __ZNSt3__112basic_stringIcNS_11char_traitsIcEENS_9allocatorIcEEE4dataB8ne180100Ev, symObjAddr: 0xF94, symBinAddr: 0x100005440, symSize: 0x28 }
  - { offset: 0x85B1, size: 0x8, addend: 0x0, symName: __ZNSt3__18ios_base5widthB8ne180100El, symObjAddr: 0xFBC, symBinAddr: 0x100005468, symSize: 0x2C }
  - { offset: 0x85F7, size: 0x8, addend: 0x0, symName: __ZNSt3__112basic_stringIcNS_11char_traitsIcEENS_9allocatorIcEEEC2B8ne180100Emc, symObjAddr: 0xFE8, symBinAddr: 0x100005494, symSize: 0x4C }
  - { offset: 0x8645, size: 0x8, addend: 0x0, symName: __ZNSt3__117__compressed_pairINS_12basic_stringIcNS_11char_traitsIcEENS_9allocatorIcEEE5__repES5_EC1B8ne180100INS_18__default_init_tagESA_EEOT_OT0_, symObjAddr: 0x1034, symBinAddr: 0x1000054E0, symSize: 0x3C }
  - { offset: 0x869D, size: 0x8, addend: 0x0, symName: __ZNSt3__117__compressed_pairINS_12basic_stringIcNS_11char_traitsIcEENS_9allocatorIcEEE5__repES5_EC2B8ne180100INS_18__default_init_tagESA_EEOT_OT0_, symObjAddr: 0x1070, symBinAddr: 0x10000551C, symSize: 0x3C }
  - { offset: 0x86F5, size: 0x8, addend: 0x0, symName: __ZNSt3__122__compressed_pair_elemINS_12basic_stringIcNS_11char_traitsIcEENS_9allocatorIcEEE5__repELi0ELb0EEC2B8ne180100ENS_18__default_init_tagE, symObjAddr: 0x10AC, symBinAddr: 0x100005558, symSize: 0x14 }
  - { offset: 0x8729, size: 0x8, addend: 0x0, symName: __ZNSt3__122__compressed_pair_elemINS_9allocatorIcEELi1ELb1EEC2B8ne180100ENS_18__default_init_tagE, symObjAddr: 0x10C0, symBinAddr: 0x10000556C, symSize: 0x2C }
  - { offset: 0x875D, size: 0x8, addend: 0x0, symName: __ZNSt3__19allocatorIcEC2B8ne180100Ev, symObjAddr: 0x10EC, symBinAddr: 0x100005598, symSize: 0x2C }
  - { offset: 0x8787, size: 0x8, addend: 0x0, symName: __ZNSt3__116__non_trivial_ifILb1ENS_9allocatorIcEEEC2B8ne180100Ev, symObjAddr: 0x1118, symBinAddr: 0x1000055C4, symSize: 0x14 }
  - { offset: 0x87B1, size: 0x8, addend: 0x0, symName: __ZNSt3__112basic_stringIcNS_11char_traitsIcEENS_9allocatorIcEEE13__get_pointerB8ne180100Ev, symObjAddr: 0x1140, symBinAddr: 0x1000055EC, symSize: 0x54 }
  - { offset: 0x87D7, size: 0x8, addend: 0x0, symName: __ZNKSt3__112basic_stringIcNS_11char_traitsIcEENS_9allocatorIcEEE9__is_longB8ne180100Ev, symObjAddr: 0x1194, symBinAddr: 0x100005640, symSize: 0x34 }
  - { offset: 0x87FD, size: 0x8, addend: 0x0, symName: __ZNSt3__112basic_stringIcNS_11char_traitsIcEENS_9allocatorIcEEE18__get_long_pointerB8ne180100Ev, symObjAddr: 0x11C8, symBinAddr: 0x100005674, symSize: 0x28 }
  - { offset: 0x8823, size: 0x8, addend: 0x0, symName: __ZNSt3__112basic_stringIcNS_11char_traitsIcEENS_9allocatorIcEEE19__get_short_pointerB8ne180100Ev, symObjAddr: 0x11F0, symBinAddr: 0x10000569C, symSize: 0x28 }
  - { offset: 0x8849, size: 0x8, addend: 0x0, symName: __ZNKSt3__117__compressed_pairINS_12basic_stringIcNS_11char_traitsIcEENS_9allocatorIcEEE5__repES5_E5firstB8ne180100Ev, symObjAddr: 0x1218, symBinAddr: 0x1000056C4, symSize: 0x24 }
  - { offset: 0x886F, size: 0x8, addend: 0x0, symName: __ZNKSt3__122__compressed_pair_elemINS_12basic_stringIcNS_11char_traitsIcEENS_9allocatorIcEEE5__repELi0ELb0EE5__getB8ne180100Ev, symObjAddr: 0x123C, symBinAddr: 0x1000056E8, symSize: 0x14 }
  - { offset: 0x8895, size: 0x8, addend: 0x0, symName: __ZNSt3__117__compressed_pairINS_12basic_stringIcNS_11char_traitsIcEENS_9allocatorIcEEE5__repES5_E5firstB8ne180100Ev, symObjAddr: 0x1250, symBinAddr: 0x1000056FC, symSize: 0x24 }
  - { offset: 0x88BB, size: 0x8, addend: 0x0, symName: __ZNSt3__122__compressed_pair_elemINS_12basic_stringIcNS_11char_traitsIcEENS_9allocatorIcEEE5__repELi0ELb0EE5__getB8ne180100Ev, symObjAddr: 0x1274, symBinAddr: 0x100005720, symSize: 0x14 }
  - { offset: 0x88E1, size: 0x8, addend: 0x0, symName: __ZNSt3__114pointer_traitsIPcE10pointer_toB8ne180100ERc, symObjAddr: 0x1288, symBinAddr: 0x100005734, symSize: 0x14 }
  - { offset: 0x8904, size: 0x8, addend: 0x0, symName: __ZNSt3__119ostreambuf_iteratorIcNS_11char_traitsIcEEEC2B8ne180100ERNS_13basic_ostreamIcS2_EE, symObjAddr: 0x129C, symBinAddr: 0x100005748, symSize: 0x54 }
  - { offset: 0x893C, size: 0x8, addend: 0x0, symName: __ZNKSt3__19basic_iosIcNS_11char_traitsIcEEE5rdbufB8ne180100Ev, symObjAddr: 0x12F0, symBinAddr: 0x10000579C, symSize: 0x24 }
  - { offset: 0x8962, size: 0x8, addend: 0x0, symName: __ZNKSt3__18ios_base5rdbufB8ne180100Ev, symObjAddr: 0x1314, symBinAddr: 0x1000057C0, symSize: 0x18 }
  - { offset: 0x8988, size: 0x8, addend: 0x0, symName: __ZNSt3__111char_traitsIcE11eq_int_typeB8ne180100Eii, symObjAddr: 0x132C, symBinAddr: 0x1000057D8, symSize: 0x24 }
  - { offset: 0x89BB, size: 0x8, addend: 0x0, symName: __ZNSt3__111char_traitsIcE3eofB8ne180100Ev, symObjAddr: 0x1350, symBinAddr: 0x1000057FC, symSize: 0x8 }
  - { offset: 0x89CF, size: 0x8, addend: 0x0, symName: __ZNKSt3__19basic_iosIcNS_11char_traitsIcEEE5widenB8ne180100Ec, symObjAddr: 0x1358, symBinAddr: 0x100005804, symSize: 0x84 }
  - { offset: 0x8A4D, size: 0x8, addend: 0x0, symName: __ZNKSt3__15ctypeIcE5widenB8ne180100Ec, symObjAddr: 0x1408, symBinAddr: 0x1000058B4, symSize: 0x38 }
  - { offset: 0x8A82, size: 0x8, addend: 0x0, symName: __ZNSt3__18ios_base8setstateB8ne180100Ej, symObjAddr: 0x1440, symBinAddr: 0x1000058EC, symSize: 0x34 }
  - { offset: 0x8AB9, size: 0x8, addend: 0x0, symName: __ZN6GTNodeIcEC2ERKc, symObjAddr: 0x1474, symBinAddr: 0x100005920, symSize: 0x2C }
  - { offset: 0x8AF1, size: 0x8, addend: 0x0, symName: __ZNSt3__111char_traitsIcE6lengthB8ne180100EPKc, symObjAddr: 0x14A0, symBinAddr: 0x10000594C, symSize: 0x34 }
  - { offset: 0x8B14, size: 0x8, addend: 0x0, symName: __Z12PreOrderTreeIcRFvRKcEEvP6GTNodeIT_EOT0_, symObjAddr: 0x14F8, symBinAddr: 0x1000059A4, symSize: 0x78 }
  - { offset: 0x8B7A, size: 0x8, addend: 0x0, symName: __ZN5BNodeIcEC1ERKc, symObjAddr: 0x1570, symBinAddr: 0x100005A1C, symSize: 0x34 }
  - { offset: 0x8BB2, size: 0x8, addend: 0x0, symName: __ZN5BNodeIcEC2ERKc, symObjAddr: 0x15A4, symBinAddr: 0x100005A50, symSize: 0x2C }
  - { offset: 0x8BEA, size: 0x8, addend: 0x0, symName: __ZNKSt3__110__function12__value_funcIFvP5BNodeIcEEEclB8ne180100EOS4_, symObjAddr: 0x15D0, symBinAddr: 0x100005A7C, symSize: 0x50 }
  - { offset: 0x8C53, size: 0x8, addend: 0x0, symName: __ZNSt3__117bad_function_callC1B8ne180100Ev, symObjAddr: 0x1658, symBinAddr: 0x100005B04, symSize: 0x2C }
  - { offset: 0x8C7D, size: 0x8, addend: 0x0, symName: __ZNSt3__117bad_function_callD1Ev, symObjAddr: 0x1684, symBinAddr: 0x100005B30, symSize: 0x2C }
  - { offset: 0x8CA7, size: 0x8, addend: 0x0, symName: __ZNSt3__117bad_function_callC2B8ne180100Ev, symObjAddr: 0x16B0, symBinAddr: 0x100005B5C, symSize: 0x3C }
  - { offset: 0x8CD1, size: 0x8, addend: 0x0, symName: __ZNSt9exceptionC2B8ne180100Ev, symObjAddr: 0x16EC, symBinAddr: 0x100005B98, symSize: 0x24 }
  - { offset: 0x8CFB, size: 0x8, addend: 0x0, symName: __ZNSt3__117bad_function_callD0Ev, symObjAddr: 0x1710, symBinAddr: 0x100005BBC, symSize: 0x30 }
  - { offset: 0x8D25, size: 0x8, addend: 0x0, symName: __ZNSt3__117bad_function_callD2Ev, symObjAddr: 0x1740, symBinAddr: 0x100005BEC, symSize: 0x2C }
  - { offset: 0x8D4F, size: 0x8, addend: 0x0, symName: '__ZNSt3__18functionIFvP5BNodeIcEEEC2IZ4mainE3$_0vEET_', symObjAddr: 0x176C, symBinAddr: 0x100005C18, symSize: 0x38 }
  - { offset: 0x8D92, size: 0x8, addend: 0x0, symName: '__ZNSt3__110__function12__value_funcIFvP5BNodeIcEEEC1B8ne180100IZ4mainE3$_0TnNS_9enable_ifIXntsr7is_sameIu7__decayIT_ES6_EE5valueEiE4typeELi0EEEOSA_', symObjAddr: 0x17A4, symBinAddr: 0x100005C50, symSize: 0x50 }
  - { offset: 0x8DDA, size: 0x8, addend: 0x0, symName: '__ZNSt3__19allocatorIZ4mainE3$_0EC1B8ne180100Ev', symObjAddr: 0x17F4, symBinAddr: 0x100005CA0, symSize: 0x2C }
  - { offset: 0x8E04, size: 0x8, addend: 0x0, symName: '__ZNSt3__110__function12__value_funcIFvP5BNodeIcEEEC1B8ne180100IZ4mainE3$_0NS_9allocatorIS8_EEEEOT_RKT0_', symObjAddr: 0x1820, symBinAddr: 0x100005CCC, symSize: 0x3C }
  - { offset: 0x8E5E, size: 0x8, addend: 0x0, symName: '__ZNSt3__19allocatorIZ4mainE3$_0EC2B8ne180100Ev', symObjAddr: 0x185C, symBinAddr: 0x100005D08, symSize: 0x2C }
  - { offset: 0x8E88, size: 0x8, addend: 0x0, symName: '__ZNSt3__116__non_trivial_ifILb1ENS_9allocatorIZ4mainE3$_0EEEC2B8ne180100Ev', symObjAddr: 0x1888, symBinAddr: 0x100005D34, symSize: 0x14 }
  - { offset: 0x8EB2, size: 0x8, addend: 0x0, symName: '__ZNSt3__110__function12__value_funcIFvP5BNodeIcEEEC2B8ne180100IZ4mainE3$_0NS_9allocatorIS8_EEEEOT_RKT0_', symObjAddr: 0x189C, symBinAddr: 0x100005D48, symSize: 0x94 }
  - { offset: 0x8F5E, size: 0x8, addend: 0x0, symName: '__ZNSt3__19allocatorINS_10__function6__funcIZ4mainE3$_0NS0_IS3_EEFvP5BNodeIcEEEEEC1B8ne180100IS3_EERKNS0_IT_EE', symObjAddr: 0x1948, symBinAddr: 0x100005DF4, symSize: 0x34 }
  - { offset: 0x8FA1, size: 0x8, addend: 0x0, symName: '__ZNSt3__19allocatorIZ4mainE3$_0EC1B8ne180100INS_10__function6__funcIS1_S2_FvP5BNodeIcEEEEEERKNS0_IT_EE', symObjAddr: 0x197C, symBinAddr: 0x100005E28, symSize: 0x34 }
  - { offset: 0x8FDE, size: 0x8, addend: 0x0, symName: '__ZNSt3__110__function6__funcIZ4mainE3$_0NS_9allocatorIS2_EEFvP5BNodeIcEEEC1B8ne180100EOS2_OS4_', symObjAddr: 0x19B0, symBinAddr: 0x100005E5C, symSize: 0x3C }
  - { offset: 0x9026, size: 0x8, addend: 0x0, symName: '__ZNSt3__19allocatorINS_10__function6__funcIZ4mainE3$_0NS0_IS3_EEFvP5BNodeIcEEEEEC2B8ne180100IS3_EERKNS0_IT_EE', symObjAddr: 0x19EC, symBinAddr: 0x100005E98, symSize: 0x30 }
  - { offset: 0x9063, size: 0x8, addend: 0x0, symName: '__ZNSt3__116__non_trivial_ifILb1ENS_9allocatorINS_10__function6__funcIZ4mainE3$_0NS1_IS4_EEFvP5BNodeIcEEEEEEEC2B8ne180100Ev', symObjAddr: 0x1A1C, symBinAddr: 0x100005EC8, symSize: 0x14 }
  - { offset: 0x908D, size: 0x8, addend: 0x0, symName: '__ZNSt3__19allocatorIZ4mainE3$_0EC2B8ne180100INS_10__function6__funcIS1_S2_FvP5BNodeIcEEEEEERKNS0_IT_EE', symObjAddr: 0x1A30, symBinAddr: 0x100005EDC, symSize: 0x30 }
  - { offset: 0x90CA, size: 0x8, addend: 0x0, symName: '__ZNSt3__110__function6__funcIZ4mainE3$_0NS_9allocatorIS2_EEFvP5BNodeIcEEEC2B8ne180100EOS2_OS4_', symObjAddr: 0x1A60, symBinAddr: 0x100005F0C, symSize: 0x80 }
  - { offset: 0x9112, size: 0x8, addend: 0x0, symName: __ZNSt3__110__function6__baseIFvP5BNodeIcEEEC2B8ne180100Ev, symObjAddr: 0x1AE0, symBinAddr: 0x100005F8C, symSize: 0x24 }
  - { offset: 0x913C, size: 0x8, addend: 0x0, symName: '__ZNSt3__110__function12__alloc_funcIZ4mainE3$_0NS_9allocatorIS2_EEFvP5BNodeIcEEEC1B8ne180100EOS2_OS4_', symObjAddr: 0x1B04, symBinAddr: 0x100005FB0, symSize: 0x3C }
  - { offset: 0x9182, size: 0x8, addend: 0x0, symName: __ZNSt3__110__function6__baseIFvP5BNodeIcEEED2Ev, symObjAddr: 0x1B40, symBinAddr: 0x100005FEC, symSize: 0x14 }
  - { offset: 0x91AC, size: 0x8, addend: 0x0, symName: '__ZNSt3__110__function6__funcIZ4mainE3$_0NS_9allocatorIS2_EEFvP5BNodeIcEEED1Ev', symObjAddr: 0x1B54, symBinAddr: 0x100006000, symSize: 0x2C }
  - { offset: 0x91D8, size: 0x8, addend: 0x0, symName: '__ZNSt3__110__function6__funcIZ4mainE3$_0NS_9allocatorIS2_EEFvP5BNodeIcEEED0Ev', symObjAddr: 0x1B80, symBinAddr: 0x10000602C, symSize: 0x30 }
  - { offset: 0x9204, size: 0x8, addend: 0x0, symName: '__ZNKSt3__110__function6__funcIZ4mainE3$_0NS_9allocatorIS2_EEFvP5BNodeIcEEE7__cloneEv', symObjAddr: 0x1BB0, symBinAddr: 0x10000605C, symSize: 0xFC }
  - { offset: 0x9254, size: 0x8, addend: 0x0, symName: '__ZNKSt3__110__function6__funcIZ4mainE3$_0NS_9allocatorIS2_EEFvP5BNodeIcEEE7__cloneEPNS0_6__baseIS8_EE', symObjAddr: 0x1CAC, symBinAddr: 0x100006158, symSize: 0x58 }
  - { offset: 0x9289, size: 0x8, addend: 0x0, symName: '__ZNSt3__110__function6__funcIZ4mainE3$_0NS_9allocatorIS2_EEFvP5BNodeIcEEE7destroyEv', symObjAddr: 0x1D04, symBinAddr: 0x1000061B0, symSize: 0x28 }
  - { offset: 0x92AF, size: 0x8, addend: 0x0, symName: '__ZNSt3__110__function6__funcIZ4mainE3$_0NS_9allocatorIS2_EEFvP5BNodeIcEEE18destroy_deallocateEv', symObjAddr: 0x1D2C, symBinAddr: 0x1000061D8, symSize: 0x58 }
  - { offset: 0x92F0, size: 0x8, addend: 0x0, symName: '__ZNSt3__110__function6__funcIZ4mainE3$_0NS_9allocatorIS2_EEFvP5BNodeIcEEEclEOS7_', symObjAddr: 0x1D84, symBinAddr: 0x100006230, symSize: 0x30 }
  - { offset: 0x9325, size: 0x8, addend: 0x0, symName: '__ZNKSt3__110__function6__funcIZ4mainE3$_0NS_9allocatorIS2_EEFvP5BNodeIcEEE6targetERKSt9type_info', symObjAddr: 0x1DB4, symBinAddr: 0x100006260, symSize: 0x60 }
  - { offset: 0x935A, size: 0x8, addend: 0x0, symName: '__ZNKSt3__110__function6__funcIZ4mainE3$_0NS_9allocatorIS2_EEFvP5BNodeIcEEE11target_typeEv', symObjAddr: 0x1E14, symBinAddr: 0x1000062C0, symSize: 0x18 }
  - { offset: 0x9380, size: 0x8, addend: 0x0, symName: __ZNSt3__110__function6__baseIFvP5BNodeIcEEED1Ev, symObjAddr: 0x1E2C, symBinAddr: 0x1000062D8, symSize: 0x14 }
  - { offset: 0x93AA, size: 0x8, addend: 0x0, symName: __ZNSt3__110__function6__baseIFvP5BNodeIcEEED0Ev, symObjAddr: 0x1E40, symBinAddr: 0x1000062EC, symSize: 0xC }
  - { offset: 0x93D4, size: 0x8, addend: 0x0, symName: '__ZNSt3__110__function12__alloc_funcIZ4mainE3$_0NS_9allocatorIS2_EEFvP5BNodeIcEEEC2B8ne180100EOS2_OS4_', symObjAddr: 0x1E4C, symBinAddr: 0x1000062F8, symSize: 0x5C }
  - { offset: 0x941A, size: 0x8, addend: 0x0, symName: '__ZNSt3__117__compressed_pairIZ4mainE3$_0NS_9allocatorIS1_EEEC1B8ne180100IJOS1_EJOS3_EEENS_21piecewise_construct_tENS_5tupleIJDpT_EEENS9_IJDpT0_EEE', symObjAddr: 0x1F00, symBinAddr: 0x1000063AC, symSize: 0x3C }
  - { offset: 0x9484, size: 0x8, addend: 0x0, symName: '__ZNSt3__15tupleIJOZ4mainE3$_0EEC1B8ne180100IJS1_ETnNS_9enable_ifIXsr4_AndINS_17integral_constantIbXeqsZT_sZT_EEENS3_17_EnableUTypesCtorIJDpT_EEEEE5valueEiE4typeELi0EEEDpOS9_', symObjAddr: 0x1F3C, symBinAddr: 0x1000063E8, symSize: 0x34 }
  - { offset: 0x94CE, size: 0x8, addend: 0x0, symName: '__ZNSt3__15tupleIJOZ4mainE3$_0EEC2B8ne180100IJS1_ETnNS_9enable_ifIXsr4_AndINS_17integral_constantIbXeqsZT_sZT_EEENS3_17_EnableUTypesCtorIJDpT_EEEEE5valueEiE4typeELi0EEEDpOS9_', symObjAddr: 0x1F70, symBinAddr: 0x10000641C, symSize: 0x34 }
  - { offset: 0x9518, size: 0x8, addend: 0x0, symName: '__ZNSt3__112__tuple_implINS_15__tuple_indicesIJLm0EEEEJOZ4mainE3$_0EEC1B8ne180100IJLm0EEJS4_ETpTnmJEJEJS3_EEENS1_IJXspT_EEEENS_13__tuple_typesIJDpT0_EEENS1_IJXspT1_EEEENS8_IJDpT2_EEEDpOT3_', symObjAddr: 0x1FA4, symBinAddr: 0x100006450, symSize: 0x34 }
  - { offset: 0x95AD, size: 0x8, addend: 0x0, symName: '__ZNSt3__112__tuple_implINS_15__tuple_indicesIJLm0EEEEJOZ4mainE3$_0EEC2B8ne180100IJLm0EEJS4_ETpTnmJEJEJS3_EEENS1_IJXspT_EEEENS_13__tuple_typesIJDpT0_EEENS1_IJXspT1_EEEENS8_IJDpT2_EEEDpOT3_', symObjAddr: 0x1FD8, symBinAddr: 0x100006484, symSize: 0x34 }
  - { offset: 0x9642, size: 0x8, addend: 0x0, symName: '__ZNSt3__112__tuple_leafILm0EOZ4mainE3$_0Lb0EEC2B8ne180100IS1_vEEOT_', symObjAddr: 0x200C, symBinAddr: 0x1000064B8, symSize: 0x20 }
  - { offset: 0x9685, size: 0x8, addend: 0x0, symName: '__ZNSt3__15tupleIJONS_9allocatorIZ4mainE3$_0EEEEC1B8ne180100IJS3_ETnNS_9enable_ifIXsr4_AndINS_17integral_constantIbXeqsZT_sZT_EEENS5_17_EnableUTypesCtorIJDpT_EEEEE5valueEiE4typeELi0EEEDpOSB_', symObjAddr: 0x202C, symBinAddr: 0x1000064D8, symSize: 0x34 }
  - { offset: 0x96CF, size: 0x8, addend: 0x0, symName: '__ZNSt3__15tupleIJONS_9allocatorIZ4mainE3$_0EEEEC2B8ne180100IJS3_ETnNS_9enable_ifIXsr4_AndINS_17integral_constantIbXeqsZT_sZT_EEENS5_17_EnableUTypesCtorIJDpT_EEEEE5valueEiE4typeELi0EEEDpOSB_', symObjAddr: 0x2060, symBinAddr: 0x10000650C, symSize: 0x34 }
  - { offset: 0x9719, size: 0x8, addend: 0x0, symName: '__ZNSt3__112__tuple_implINS_15__tuple_indicesIJLm0EEEEJONS_9allocatorIZ4mainE3$_0EEEEC1B8ne180100IJLm0EEJS6_ETpTnmJEJEJS5_EEENS1_IJXspT_EEEENS_13__tuple_typesIJDpT0_EEENS1_IJXspT1_EEEENSA_IJDpT2_EEEDpOT3_', symObjAddr: 0x2094, symBinAddr: 0x100006540, symSize: 0x34 }
  - { offset: 0x97AE, size: 0x8, addend: 0x0, symName: '__ZNSt3__112__tuple_implINS_15__tuple_indicesIJLm0EEEEJONS_9allocatorIZ4mainE3$_0EEEEC2B8ne180100IJLm0EEJS6_ETpTnmJEJEJS5_EEENS1_IJXspT_EEEENS_13__tuple_typesIJDpT0_EEENS1_IJXspT1_EEEENSA_IJDpT2_EEEDpOT3_', symObjAddr: 0x20C8, symBinAddr: 0x100006574, symSize: 0x34 }
  - { offset: 0x9843, size: 0x8, addend: 0x0, symName: '__ZNSt3__112__tuple_leafILm0EONS_9allocatorIZ4mainE3$_0EELb0EEC2B8ne180100IS3_vEEOT_', symObjAddr: 0x20FC, symBinAddr: 0x1000065A8, symSize: 0x20 }
  - { offset: 0x9886, size: 0x8, addend: 0x0, symName: '__ZNSt3__117__compressed_pairIZ4mainE3$_0NS_9allocatorIS1_EEEC2B8ne180100IJOS1_EJOS3_EEENS_21piecewise_construct_tENS_5tupleIJDpT_EEENS9_IJDpT0_EEE', symObjAddr: 0x211C, symBinAddr: 0x1000065C8, symSize: 0x54 }
  - { offset: 0x98F0, size: 0x8, addend: 0x0, symName: '__ZNSt3__122__compressed_pair_elemIZ4mainE3$_0Li0ELb0EEC2B8ne180100IJOS1_EJLm0EEEENS_21piecewise_construct_tENS_5tupleIJDpT_EEENS_15__tuple_indicesIJXspT0_EEEE', symObjAddr: 0x2170, symBinAddr: 0x10000661C, symSize: 0x44 }
  - { offset: 0x9953, size: 0x8, addend: 0x0, symName: '__ZNSt3__122__compressed_pair_elemINS_9allocatorIZ4mainE3$_0EELi1ELb1EEC2B8ne180100IJOS3_EJLm0EEEENS_21piecewise_construct_tENS_5tupleIJDpT_EEENS_15__tuple_indicesIJXspT0_EEEE', symObjAddr: 0x21B4, symBinAddr: 0x100006660, symSize: 0x38 }
  - { offset: 0x99B6, size: 0x8, addend: 0x0, symName: '__ZNSt3__112__tuple_leafILm0EOZ4mainE3$_0Lb0EE3getB8ne180100Ev', symObjAddr: 0x2210, symBinAddr: 0x1000066BC, symSize: 0x18 }
  - { offset: 0x99DC, size: 0x8, addend: 0x0, symName: '__ZNSt3__112__tuple_leafILm0EONS_9allocatorIZ4mainE3$_0EELb0EE3getB8ne180100Ev', symObjAddr: 0x224C, symBinAddr: 0x1000066F8, symSize: 0x18 }
  - { offset: 0x9A02, size: 0x8, addend: 0x0, symName: '__ZNSt3__110__function6__funcIZ4mainE3$_0NS_9allocatorIS2_EEFvP5BNodeIcEEED2Ev', symObjAddr: 0x2264, symBinAddr: 0x100006710, symSize: 0x2C }
  - { offset: 0x9A2E, size: 0x8, addend: 0x0, symName: '__ZNKSt3__110__function12__alloc_funcIZ4mainE3$_0NS_9allocatorIS2_EEFvP5BNodeIcEEE15__get_allocatorB8ne180100Ev', symObjAddr: 0x2290, symBinAddr: 0x10000673C, symSize: 0x24 }
  - { offset: 0x9A54, size: 0x8, addend: 0x0, symName: '__ZNSt3__19allocatorINS_10__function6__funcIZ4mainE3$_0NS0_IS3_EEFvP5BNodeIcEEEEE8allocateB8ne180100Em', symObjAddr: 0x22B4, symBinAddr: 0x100006760, symSize: 0x54 }
  - { offset: 0x9A9A, size: 0x8, addend: 0x0, symName: '__ZNSt3__122__allocator_destructorINS_9allocatorINS_10__function6__funcIZ4mainE3$_0NS1_IS4_EEFvP5BNodeIcEEEEEEEC1B8ne180100ERSB_m', symObjAddr: 0x2308, symBinAddr: 0x1000067B4, symSize: 0x3C }
  - { offset: 0x9B81, size: 0x8, addend: 0x0, symName: '__ZNSt3__110unique_ptrINS_10__function6__funcIZ4mainE3$_0NS_9allocatorIS3_EEFvP5BNodeIcEEEENS_22__allocator_destructorINS4_ISA_EEEEEC1B8ne180100ILb1EvEEPSA_NS_16__dependent_typeINS_27__unique_ptr_deleter_sfinaeISD_EEXT_EE20__good_rval_ref_typeE', symObjAddr: 0x2344, symBinAddr: 0x1000067F0, symSize: 0x3C }
  - { offset: 0x9BD2, size: 0x8, addend: 0x0, symName: '__ZNKSt3__110unique_ptrINS_10__function6__funcIZ4mainE3$_0NS_9allocatorIS3_EEFvP5BNodeIcEEEENS_22__allocator_destructorINS4_ISA_EEEEE3getB8ne180100Ev', symObjAddr: 0x2380, symBinAddr: 0x10000682C, symSize: 0x28 }
  - { offset: 0x9BF8, size: 0x8, addend: 0x0, symName: '__ZNKSt3__110__function12__alloc_funcIZ4mainE3$_0NS_9allocatorIS2_EEFvP5BNodeIcEEE8__targetB8ne180100Ev', symObjAddr: 0x23A8, symBinAddr: 0x100006854, symSize: 0x24 }
  - { offset: 0x9C1E, size: 0x8, addend: 0x0, symName: '__ZNSt3__110__function6__funcIZ4mainE3$_0NS_9allocatorIS2_EEFvP5BNodeIcEEEC1B8ne180100ERKS2_OS4_', symObjAddr: 0x23CC, symBinAddr: 0x100006878, symSize: 0x3C }
  - { offset: 0x9C66, size: 0x8, addend: 0x0, symName: '__ZNSt3__110unique_ptrINS_10__function6__funcIZ4mainE3$_0NS_9allocatorIS3_EEFvP5BNodeIcEEEENS_22__allocator_destructorINS4_ISA_EEEEE7releaseB8ne180100Ev', symObjAddr: 0x2408, symBinAddr: 0x1000068B4, symSize: 0x44 }
  - { offset: 0x9C9B, size: 0x8, addend: 0x0, symName: '__ZNSt3__110unique_ptrINS_10__function6__funcIZ4mainE3$_0NS_9allocatorIS3_EEFvP5BNodeIcEEEENS_22__allocator_destructorINS4_ISA_EEEEED1B8ne180100Ev', symObjAddr: 0x244C, symBinAddr: 0x1000068F8, symSize: 0x2C }
  - { offset: 0x9CC5, size: 0x8, addend: 0x0, symName: '__ZNKSt3__117__compressed_pairIZ4mainE3$_0NS_9allocatorIS1_EEE6secondB8ne180100Ev', symObjAddr: 0x2478, symBinAddr: 0x100006924, symSize: 0x24 }
  - { offset: 0x9CEB, size: 0x8, addend: 0x0, symName: '__ZNKSt3__122__compressed_pair_elemINS_9allocatorIZ4mainE3$_0EELi1ELb1EE5__getB8ne180100Ev', symObjAddr: 0x249C, symBinAddr: 0x100006948, symSize: 0x14 }
  - { offset: 0x9D1C, size: 0x8, addend: 0x0, symName: '__ZNSt3__116allocator_traitsINS_9allocatorINS_10__function6__funcIZ4mainE3$_0NS1_IS4_EEFvP5BNodeIcEEEEEEE8max_sizeB8ne180100ISB_vEEmRKSB_', symObjAddr: 0x24B0, symBinAddr: 0x10000695C, symSize: 0x24 }
  - { offset: 0x9D4A, size: 0x8, addend: 0x0, symName: '__ZNKSt3__19allocatorINS_10__function6__funcIZ4mainE3$_0NS0_IS3_EEFvP5BNodeIcEEEEE8max_sizeB8ne180100Ev', symObjAddr: 0x2568, symBinAddr: 0x100006A14, symSize: 0x14 }
  - { offset: 0x9D70, size: 0x8, addend: 0x0, symName: '__ZNSt3__122__allocator_destructorINS_9allocatorINS_10__function6__funcIZ4mainE3$_0NS1_IS4_EEFvP5BNodeIcEEEEEEEC2B8ne180100ERSB_m', symObjAddr: 0x25E8, symBinAddr: 0x100006A94, symSize: 0x2C }
  - { offset: 0x9DB6, size: 0x8, addend: 0x0, symName: '__ZNSt3__110unique_ptrINS_10__function6__funcIZ4mainE3$_0NS_9allocatorIS3_EEFvP5BNodeIcEEEENS_22__allocator_destructorINS4_ISA_EEEEEC2B8ne180100ILb1EvEEPSA_NS_16__dependent_typeINS_27__unique_ptr_deleter_sfinaeISD_EEXT_EE20__good_rval_ref_typeE', symObjAddr: 0x2614, symBinAddr: 0x100006AC0, symSize: 0x48 }
  - { offset: 0x9E07, size: 0x8, addend: 0x0, symName: '__ZNSt3__117__compressed_pairIPNS_10__function6__funcIZ4mainE3$_0NS_9allocatorIS3_EEFvP5BNodeIcEEEENS_22__allocator_destructorINS4_ISA_EEEEEC1B8ne180100IRSB_SE_EEOT_OT0_', symObjAddr: 0x265C, symBinAddr: 0x100006B08, symSize: 0x3C }
  - { offset: 0x9E5F, size: 0x8, addend: 0x0, symName: '__ZNSt3__117__compressed_pairIPNS_10__function6__funcIZ4mainE3$_0NS_9allocatorIS3_EEFvP5BNodeIcEEEENS_22__allocator_destructorINS4_ISA_EEEEEC2B8ne180100IRSB_SE_EEOT_OT0_', symObjAddr: 0x2698, symBinAddr: 0x100006B44, symSize: 0x48 }
  - { offset: 0x9EB7, size: 0x8, addend: 0x0, symName: '__ZNSt3__122__compressed_pair_elemIPNS_10__function6__funcIZ4mainE3$_0NS_9allocatorIS3_EEFvP5BNodeIcEEEELi0ELb0EEC2B8ne180100IRSB_vEEOT_', symObjAddr: 0x26E0, symBinAddr: 0x100006B8C, symSize: 0x24 }
  - { offset: 0x9EF9, size: 0x8, addend: 0x0, symName: '__ZNSt3__122__compressed_pair_elemINS_22__allocator_destructorINS_9allocatorINS_10__function6__funcIZ4mainE3$_0NS2_IS5_EEFvP5BNodeIcEEEEEEEELi1ELb0EEC2B8ne180100ISD_vEEOT_', symObjAddr: 0x2704, symBinAddr: 0x100006BB0, symSize: 0x24 }
  - { offset: 0x9F3B, size: 0x8, addend: 0x0, symName: '__ZNKSt3__117__compressed_pairIPNS_10__function6__funcIZ4mainE3$_0NS_9allocatorIS3_EEFvP5BNodeIcEEEENS_22__allocator_destructorINS4_ISA_EEEEE5firstB8ne180100Ev', symObjAddr: 0x2728, symBinAddr: 0x100006BD4, symSize: 0x24 }
  - { offset: 0x9F61, size: 0x8, addend: 0x0, symName: '__ZNKSt3__122__compressed_pair_elemIPNS_10__function6__funcIZ4mainE3$_0NS_9allocatorIS3_EEFvP5BNodeIcEEEELi0ELb0EE5__getB8ne180100Ev', symObjAddr: 0x274C, symBinAddr: 0x100006BF8, symSize: 0x14 }
  - { offset: 0x9F87, size: 0x8, addend: 0x0, symName: '__ZNKSt3__117__compressed_pairIZ4mainE3$_0NS_9allocatorIS1_EEE5firstB8ne180100Ev', symObjAddr: 0x2760, symBinAddr: 0x100006C0C, symSize: 0x24 }
  - { offset: 0x9FAD, size: 0x8, addend: 0x0, symName: '__ZNKSt3__122__compressed_pair_elemIZ4mainE3$_0Li0ELb0EE5__getB8ne180100Ev', symObjAddr: 0x2784, symBinAddr: 0x100006C30, symSize: 0x14 }
  - { offset: 0x9FD3, size: 0x8, addend: 0x0, symName: '__ZNSt3__110__function6__funcIZ4mainE3$_0NS_9allocatorIS2_EEFvP5BNodeIcEEEC2B8ne180100ERKS2_OS4_', symObjAddr: 0x2798, symBinAddr: 0x100006C44, symSize: 0x80 }
  - { offset: 0xA01B, size: 0x8, addend: 0x0, symName: '__ZNSt3__110__function12__alloc_funcIZ4mainE3$_0NS_9allocatorIS2_EEFvP5BNodeIcEEEC1B8ne180100ERKS2_OS4_', symObjAddr: 0x2818, symBinAddr: 0x100006CC4, symSize: 0x3C }
  - { offset: 0xA061, size: 0x8, addend: 0x0, symName: '__ZNSt3__110__function12__alloc_funcIZ4mainE3$_0NS_9allocatorIS2_EEFvP5BNodeIcEEEC2B8ne180100ERKS2_OS4_', symObjAddr: 0x2854, symBinAddr: 0x100006D00, symSize: 0x5C }
  - { offset: 0xA0A7, size: 0x8, addend: 0x0, symName: '__ZNSt3__117__compressed_pairIZ4mainE3$_0NS_9allocatorIS1_EEEC1B8ne180100IJRKS1_EJOS3_EEENS_21piecewise_construct_tENS_5tupleIJDpT_EEENSA_IJDpT0_EEE', symObjAddr: 0x28DC, symBinAddr: 0x100006D88, symSize: 0x3C }
  - { offset: 0xA111, size: 0x8, addend: 0x0, symName: '__ZNSt3__15tupleIJRKZ4mainE3$_0EEC1B8ne180100INS_4_AndETnNS_9enable_ifIXsrT_IJNS_17integral_constantIbLb1EEENS_21is_copy_constructibleIS3_EEEE5valueEiE4typeELi0EEES3_', symObjAddr: 0x2918, symBinAddr: 0x100006DC4, symSize: 0x34 }
  - { offset: 0xA159, size: 0x8, addend: 0x0, symName: '__ZNSt3__15tupleIJRKZ4mainE3$_0EEC2B8ne180100INS_4_AndETnNS_9enable_ifIXsrT_IJNS_17integral_constantIbLb1EEENS_21is_copy_constructibleIS3_EEEE5valueEiE4typeELi0EEES3_', symObjAddr: 0x294C, symBinAddr: 0x100006DF8, symSize: 0x34 }
  - { offset: 0xA1A1, size: 0x8, addend: 0x0, symName: '__ZNSt3__112__tuple_implINS_15__tuple_indicesIJLm0EEEEJRKZ4mainE3$_0EEC1B8ne180100IJLm0EEJS5_ETpTnmJEJEJS5_EEENS1_IJXspT_EEEENS_13__tuple_typesIJDpT0_EEENS1_IJXspT1_EEEENS9_IJDpT2_EEEDpOT3_', symObjAddr: 0x2980, symBinAddr: 0x100006E2C, symSize: 0x34 }
  - { offset: 0xA236, size: 0x8, addend: 0x0, symName: '__ZNSt3__112__tuple_implINS_15__tuple_indicesIJLm0EEEEJRKZ4mainE3$_0EEC2B8ne180100IJLm0EEJS5_ETpTnmJEJEJS5_EEENS1_IJXspT_EEEENS_13__tuple_typesIJDpT0_EEENS1_IJXspT1_EEEENS9_IJDpT2_EEEDpOT3_', symObjAddr: 0x29B4, symBinAddr: 0x100006E60, symSize: 0x34 }
  - { offset: 0xA2CB, size: 0x8, addend: 0x0, symName: '__ZNSt3__112__tuple_leafILm0ERKZ4mainE3$_0Lb0EEC2B8ne180100IS3_vEEOT_', symObjAddr: 0x29E8, symBinAddr: 0x100006E94, symSize: 0x20 }
  - { offset: 0xA30E, size: 0x8, addend: 0x0, symName: '__ZNSt3__117__compressed_pairIZ4mainE3$_0NS_9allocatorIS1_EEEC2B8ne180100IJRKS1_EJOS3_EEENS_21piecewise_construct_tENS_5tupleIJDpT_EEENSA_IJDpT0_EEE', symObjAddr: 0x2A08, symBinAddr: 0x100006EB4, symSize: 0x54 }
  - { offset: 0xA378, size: 0x8, addend: 0x0, symName: '__ZNSt3__122__compressed_pair_elemIZ4mainE3$_0Li0ELb0EEC2B8ne180100IJRKS1_EJLm0EEEENS_21piecewise_construct_tENS_5tupleIJDpT_EEENS_15__tuple_indicesIJXspT0_EEEE', symObjAddr: 0x2A5C, symBinAddr: 0x100006F08, symSize: 0x44 }
  - { offset: 0xA3DB, size: 0x8, addend: 0x0, symName: '__ZNSt3__112__tuple_leafILm0ERKZ4mainE3$_0Lb0EE3getB8ne180100Ev', symObjAddr: 0x2AC4, symBinAddr: 0x100006F70, symSize: 0x18 }
  - { offset: 0xA401, size: 0x8, addend: 0x0, symName: '__ZNSt3__117__compressed_pairIPNS_10__function6__funcIZ4mainE3$_0NS_9allocatorIS3_EEFvP5BNodeIcEEEENS_22__allocator_destructorINS4_ISA_EEEEE5firstB8ne180100Ev', symObjAddr: 0x2ADC, symBinAddr: 0x100006F88, symSize: 0x24 }
  - { offset: 0xA427, size: 0x8, addend: 0x0, symName: '__ZNSt3__122__compressed_pair_elemIPNS_10__function6__funcIZ4mainE3$_0NS_9allocatorIS3_EEFvP5BNodeIcEEEELi0ELb0EE5__getB8ne180100Ev', symObjAddr: 0x2B00, symBinAddr: 0x100006FAC, symSize: 0x14 }
  - { offset: 0xA44D, size: 0x8, addend: 0x0, symName: '__ZNSt3__110unique_ptrINS_10__function6__funcIZ4mainE3$_0NS_9allocatorIS3_EEFvP5BNodeIcEEEENS_22__allocator_destructorINS4_ISA_EEEEED2B8ne180100Ev', symObjAddr: 0x2B14, symBinAddr: 0x100006FC0, symSize: 0x30 }
  - { offset: 0xA477, size: 0x8, addend: 0x0, symName: '__ZNSt3__110unique_ptrINS_10__function6__funcIZ4mainE3$_0NS_9allocatorIS3_EEFvP5BNodeIcEEEENS_22__allocator_destructorINS4_ISA_EEEEE5resetB8ne180100EPSA_', symObjAddr: 0x2B44, symBinAddr: 0x100006FF0, symSize: 0x70 }
  - { offset: 0xA4BB, size: 0x8, addend: 0x0, symName: '__ZNSt3__117__compressed_pairIPNS_10__function6__funcIZ4mainE3$_0NS_9allocatorIS3_EEFvP5BNodeIcEEEENS_22__allocator_destructorINS4_ISA_EEEEE6secondB8ne180100Ev', symObjAddr: 0x2BB4, symBinAddr: 0x100007060, symSize: 0x28 }
  - { offset: 0xA4E1, size: 0x8, addend: 0x0, symName: '__ZNSt3__122__allocator_destructorINS_9allocatorINS_10__function6__funcIZ4mainE3$_0NS1_IS4_EEFvP5BNodeIcEEEEEEEclB8ne180100EPSA_', symObjAddr: 0x2BDC, symBinAddr: 0x100007088, symSize: 0x34 }
  - { offset: 0xA515, size: 0x8, addend: 0x0, symName: '__ZNSt3__122__compressed_pair_elemINS_22__allocator_destructorINS_9allocatorINS_10__function6__funcIZ4mainE3$_0NS2_IS5_EEFvP5BNodeIcEEEEEEEELi1ELb0EE5__getB8ne180100Ev', symObjAddr: 0x2C10, symBinAddr: 0x1000070BC, symSize: 0x14 }
  - { offset: 0xA53B, size: 0x8, addend: 0x0, symName: '__ZNSt3__116allocator_traitsINS_9allocatorINS_10__function6__funcIZ4mainE3$_0NS1_IS4_EEFvP5BNodeIcEEEEEEE10deallocateB8ne180100ERSB_PSA_m', symObjAddr: 0x2C24, symBinAddr: 0x1000070D0, symSize: 0x34 }
  - { offset: 0xA57D, size: 0x8, addend: 0x0, symName: '__ZNSt3__19allocatorINS_10__function6__funcIZ4mainE3$_0NS0_IS3_EEFvP5BNodeIcEEEEE10deallocateB8ne180100EPS9_m', symObjAddr: 0x2C58, symBinAddr: 0x100007104, symSize: 0x40 }
  - { offset: 0xA5BF, size: 0x8, addend: 0x0, symName: '__ZNSt3__110__function6__funcIZ4mainE3$_0NS_9allocatorIS2_EEFvP5BNodeIcEEEC1B8ne180100ERKS2_RKS4_', symObjAddr: 0x2DA0, symBinAddr: 0x10000724C, symSize: 0x3C }
  - { offset: 0xA607, size: 0x8, addend: 0x0, symName: '__ZNSt3__110__function6__funcIZ4mainE3$_0NS_9allocatorIS2_EEFvP5BNodeIcEEEC2B8ne180100ERKS2_RKS4_', symObjAddr: 0x2DDC, symBinAddr: 0x100007288, symSize: 0x80 }
  - { offset: 0xA64F, size: 0x8, addend: 0x0, symName: '__ZNSt3__110__function12__alloc_funcIZ4mainE3$_0NS_9allocatorIS2_EEFvP5BNodeIcEEEC1B8ne180100ERKS2_RKS4_', symObjAddr: 0x2E5C, symBinAddr: 0x100007308, symSize: 0x3C }
  - { offset: 0xA695, size: 0x8, addend: 0x0, symName: '__ZNSt3__110__function12__alloc_funcIZ4mainE3$_0NS_9allocatorIS2_EEFvP5BNodeIcEEEC2B8ne180100ERKS2_RKS4_', symObjAddr: 0x2E98, symBinAddr: 0x100007344, symSize: 0x5C }
  - { offset: 0xA6DB, size: 0x8, addend: 0x0, symName: '__ZNSt3__117__compressed_pairIZ4mainE3$_0NS_9allocatorIS1_EEEC1B8ne180100IJRKS1_EJRKS3_EEENS_21piecewise_construct_tENS_5tupleIJDpT_EEENSB_IJDpT0_EEE', symObjAddr: 0x2F20, symBinAddr: 0x1000073CC, symSize: 0x3C }
  - { offset: 0xA745, size: 0x8, addend: 0x0, symName: '__ZNSt3__15tupleIJRKNS_9allocatorIZ4mainE3$_0EEEEC1B8ne180100INS_4_AndETnNS_9enable_ifIXsrT_IJNS_17integral_constantIbLb1EEENS_21is_copy_constructibleIS5_EEEE5valueEiE4typeELi0EEES5_', symObjAddr: 0x2F5C, symBinAddr: 0x100007408, symSize: 0x34 }
  - { offset: 0xA78D, size: 0x8, addend: 0x0, symName: '__ZNSt3__15tupleIJRKNS_9allocatorIZ4mainE3$_0EEEEC2B8ne180100INS_4_AndETnNS_9enable_ifIXsrT_IJNS_17integral_constantIbLb1EEENS_21is_copy_constructibleIS5_EEEE5valueEiE4typeELi0EEES5_', symObjAddr: 0x2F90, symBinAddr: 0x10000743C, symSize: 0x34 }
  - { offset: 0xA7D5, size: 0x8, addend: 0x0, symName: '__ZNSt3__112__tuple_implINS_15__tuple_indicesIJLm0EEEEJRKNS_9allocatorIZ4mainE3$_0EEEEC1B8ne180100IJLm0EEJS7_ETpTnmJEJEJS7_EEENS1_IJXspT_EEEENS_13__tuple_typesIJDpT0_EEENS1_IJXspT1_EEEENSB_IJDpT2_EEEDpOT3_', symObjAddr: 0x2FC4, symBinAddr: 0x100007470, symSize: 0x34 }
  - { offset: 0xA86A, size: 0x8, addend: 0x0, symName: '__ZNSt3__112__tuple_implINS_15__tuple_indicesIJLm0EEEEJRKNS_9allocatorIZ4mainE3$_0EEEEC2B8ne180100IJLm0EEJS7_ETpTnmJEJEJS7_EEENS1_IJXspT_EEEENS_13__tuple_typesIJDpT0_EEENS1_IJXspT1_EEEENSB_IJDpT2_EEEDpOT3_', symObjAddr: 0x2FF8, symBinAddr: 0x1000074A4, symSize: 0x34 }
  - { offset: 0xA8FF, size: 0x8, addend: 0x0, symName: '__ZNSt3__112__tuple_leafILm0ERKNS_9allocatorIZ4mainE3$_0EELb0EEC2B8ne180100IS5_vEEOT_', symObjAddr: 0x302C, symBinAddr: 0x1000074D8, symSize: 0x20 }
  - { offset: 0xA942, size: 0x8, addend: 0x0, symName: '__ZNSt3__117__compressed_pairIZ4mainE3$_0NS_9allocatorIS1_EEEC2B8ne180100IJRKS1_EJRKS3_EEENS_21piecewise_construct_tENS_5tupleIJDpT_EEENSB_IJDpT0_EEE', symObjAddr: 0x304C, symBinAddr: 0x1000074F8, symSize: 0x54 }
  - { offset: 0xA9AC, size: 0x8, addend: 0x0, symName: '__ZNSt3__122__compressed_pair_elemINS_9allocatorIZ4mainE3$_0EELi1ELb1EEC2B8ne180100IJRKS3_EJLm0EEEENS_21piecewise_construct_tENS_5tupleIJDpT_EEENS_15__tuple_indicesIJXspT0_EEEE', symObjAddr: 0x30A0, symBinAddr: 0x10000754C, symSize: 0x38 }
  - { offset: 0xAA0F, size: 0x8, addend: 0x0, symName: '__ZNSt3__112__tuple_leafILm0ERKNS_9allocatorIZ4mainE3$_0EELb0EE3getB8ne180100Ev', symObjAddr: 0x30FC, symBinAddr: 0x1000075A8, symSize: 0x18 }
  - { offset: 0xAA35, size: 0x8, addend: 0x0, symName: '__ZNSt3__110__function12__alloc_funcIZ4mainE3$_0NS_9allocatorIS2_EEFvP5BNodeIcEEE7destroyB8ne180100Ev', symObjAddr: 0x3114, symBinAddr: 0x1000075C0, symSize: 0x10 }
  - { offset: 0xAA5B, size: 0x8, addend: 0x0, symName: '__ZNSt3__110__function12__alloc_funcIZ4mainE3$_0NS_9allocatorIS2_EEFvP5BNodeIcEEEclB8ne180100EOS7_', symObjAddr: 0x3124, symBinAddr: 0x1000075D0, symSize: 0x30 }
  - { offset: 0xAA8F, size: 0x8, addend: 0x0, symName: '__ZNSt3__128__invoke_void_return_wrapperIvLb1EE6__callB8ne180100IJRZ4mainE3$_0P5BNodeIcEEEEvDpOT_', symObjAddr: 0x3154, symBinAddr: 0x100007600, symSize: 0x2C }
  - { offset: 0xAAD2, size: 0x8, addend: 0x0, symName: '__ZNSt3__117__compressed_pairIZ4mainE3$_0NS_9allocatorIS1_EEE5firstB8ne180100Ev', symObjAddr: 0x3180, symBinAddr: 0x10000762C, symSize: 0x24 }
  - { offset: 0xAAFE, size: 0x8, addend: 0x0, symName: '__ZZ4mainENK3$_0clEP5BNodeIcE', symObjAddr: 0x31D4, symBinAddr: 0x100007680, symSize: 0x80 }
  - { offset: 0xAB36, size: 0x8, addend: 0x0, symName: '__ZNSt3__122__compressed_pair_elemIZ4mainE3$_0Li0ELb0EE5__getB8ne180100Ev', symObjAddr: 0x3254, symBinAddr: 0x100007700, symSize: 0x14 }
  - { offset: 0xAB90, size: 0x8, addend: 0x0, symName: __ZNKSt9type_infoeqB8ne180100ERKS_, symObjAddr: 0x3268, symBinAddr: 0x100007714, symSize: 0xD4 }
  - { offset: 0xAC2C, size: 0x8, addend: 0x0, symName: __ZNSt27__type_info_implementations30__non_unique_arm_rtti_bit_impl21__is_type_name_uniqueB8ne180100Em, symObjAddr: 0x333C, symBinAddr: 0x1000077E8, symSize: 0x1C }
  - { offset: 0xAC50, size: 0x8, addend: 0x0, symName: __ZNSt3__18functionIFvP5BNodeIcEEED2Ev, symObjAddr: 0x3358, symBinAddr: 0x100007804, symSize: 0x2C }
  - { offset: 0xAC7C, size: 0x8, addend: 0x0, symName: __ZNSt3__110__function12__value_funcIFvP5BNodeIcEEED1B8ne180100Ev, symObjAddr: 0x3384, symBinAddr: 0x100007830, symSize: 0x2C }
  - { offset: 0xACA6, size: 0x8, addend: 0x0, symName: __ZNSt3__110__function12__value_funcIFvP5BNodeIcEEED2B8ne180100Ev, symObjAddr: 0x33B0, symBinAddr: 0x10000785C, symSize: 0x84 }
...
