---
triple:          'arm64-apple-darwin'
binary-path:     "/Volumes/星舰雅请假记录/CPP学习（乐子版）/C项目/数据结构与算法/查找/哈希表"
relocations:
  - { offset: 0x33, size: 0x8, addend: 0x0, symName: __Z16hashPseudoRandomim, symObjAddr: 0x318, symBinAddr: 0x100004E5C, symSize: 0xF8 }
  - { offset: 0x5C, size: 0x8, addend: 0x0, symName: __ZZ16hashPseudoRandomimE3rng, symObjAddr: 0x405D0, symBinAddr: 0x100010240, symSize: 0x0 }
  - { offset: 0x6FC2, size: 0x8, addend: 0x0, symName: __ZNSt3__124__put_character_sequenceB8ne180100IcNS_11char_traitsIcEEEERNS_13basic_ostreamIT_T0_EES7_PKS4_m, symObjAddr: 0x5B3C, symBinAddr: 0x10000A680, symSize: 0x1E8 }
  - { offset: 0x8419, size: 0x8, addend: 0x0, symName: __ZNSt3__13minB8ne180100ImEERKT_S3_S3_, symObjAddr: 0x228, symBinAddr: 0x100004D6C, symSize: 0x2C }
  - { offset: 0x845C, size: 0x8, addend: 0x0, symName: __ZNSt3__1lsB8ne180100INS_11char_traitsIcEEEERNS_13basic_ostreamIcT_EES6_PKc, symObjAddr: 0xACC, symBinAddr: 0x100005610, symSize: 0x48 }
  - { offset: 0x84A2, size: 0x8, addend: 0x0, symName: __ZNSt3__13minB8ne180100ImNS_6__lessIvvEEEERKT_S5_S5_T0_, symObjAddr: 0x13AC, symBinAddr: 0x100005EF0, symSize: 0x54 }
  - { offset: 0x8541, size: 0x8, addend: 0x0, symName: __ZNSt3__122__make_exception_guardB8ne180100INS_6vectorI8HashSlotNS_9allocatorIS2_EEE16__destroy_vectorEEENS_28__exception_guard_exceptionsIT_EES8_, symObjAddr: 0x15B4, symBinAddr: 0x1000060F8, symSize: 0x40 }
  - { offset: 0x8576, size: 0x8, addend: 0x0, symName: __ZNSt3__119__allocate_at_leastB8ne180100INS_9allocatorI8HashSlotEEEENS_19__allocation_resultINS_16allocator_traitsIT_E7pointerEEERS6_m, symObjAddr: 0x1998, symBinAddr: 0x1000064DC, symSize: 0x40 }
  - { offset: 0x87A3, size: 0x8, addend: 0x0, symName: __ZNSt3__120__throw_length_errorB8ne180100EPKc, symObjAddr: 0x1B00, symBinAddr: 0x100006644, symSize: 0x64 }
  - { offset: 0x87CB, size: 0x8, addend: 0x0, symName: __ZNSt3__117__libcpp_allocateB8ne180100Emm, symObjAddr: 0x1C64, symBinAddr: 0x1000067A8, symSize: 0x60 }
  - { offset: 0x8825, size: 0x8, addend: 0x0, symName: __ZNSt3__124__is_overaligned_for_newB8ne180100Em, symObjAddr: 0x1CC4, symBinAddr: 0x100006808, symSize: 0x1C }
  - { offset: 0x8853, size: 0x8, addend: 0x0, symName: __ZNSt3__121__libcpp_operator_newB8ne180100IJmSt11align_val_tEEEPvDpT_, symObjAddr: 0x1CE0, symBinAddr: 0x100006824, symSize: 0x2C }
  - { offset: 0x88A0, size: 0x8, addend: 0x0, symName: __ZNSt3__121__libcpp_operator_newB8ne180100IJmEEEPvDpT_, symObjAddr: 0x1D0C, symBinAddr: 0x100006850, symSize: 0x24 }
  - { offset: 0x88D9, size: 0x8, addend: 0x0, symName: __ZNSt3__112__to_addressB8ne180100I8HashSlotEEPT_S3_, symObjAddr: 0x1E08, symBinAddr: 0x10000694C, symSize: 0x14 }
  - { offset: 0x890E, size: 0x8, addend: 0x0, symName: __ZNSt3__119__libcpp_deallocateB8ne180100EPvmm, symObjAddr: 0x21A8, symBinAddr: 0x100006CEC, symSize: 0x60 }
  - { offset: 0x8973, size: 0x8, addend: 0x0, symName: __ZNSt3__127__do_deallocate_handle_sizeB8ne180100IJSt11align_val_tEEEvPvmDpT_, symObjAddr: 0x2208, symBinAddr: 0x100006D4C, symSize: 0x30 }
  - { offset: 0x89C6, size: 0x8, addend: 0x0, symName: __ZNSt3__127__do_deallocate_handle_sizeB8ne180100IJEEEvPvmDpT_, symObjAddr: 0x2238, symBinAddr: 0x100006D7C, symSize: 0x28 }
  - { offset: 0x8A04, size: 0x8, addend: 0x0, symName: __ZNSt3__124__libcpp_operator_deleteB8ne180100IJPvSt11align_val_tEEEvDpT_, symObjAddr: 0x2260, symBinAddr: 0x100006DA4, symSize: 0x2C }
  - { offset: 0x8A4D, size: 0x8, addend: 0x0, symName: __ZNSt3__124__libcpp_operator_deleteB8ne180100IJPvEEEvDpT_, symObjAddr: 0x228C, symBinAddr: 0x100006DD0, symSize: 0x24 }
  - { offset: 0x8A82, size: 0x8, addend: 0x0, symName: __ZNSt3__1neB8ne180100IP8HashSlotEEbRKNS_11__wrap_iterIT_EES7_, symObjAddr: 0x267C, symBinAddr: 0x1000071C0, symSize: 0x30 }
  - { offset: 0x8AC5, size: 0x8, addend: 0x0, symName: __ZNSt3__130__uninitialized_allocator_copyB8ne180100INS_9allocatorI8HashSlotEEPS2_S4_S4_EET2_RT_T0_T1_S5_, symObjAddr: 0x298C, symBinAddr: 0x1000074D0, symSize: 0x80 }
  - { offset: 0x8B62, size: 0x8, addend: 0x0, symName: __ZNSt3__114__unwrap_rangeB8ne180100IP8HashSlotS2_EENS_4pairIT0_S4_EET_S6_, symObjAddr: 0x2A0C, symBinAddr: 0x100007550, symSize: 0x60 }
  - { offset: 0x8BAE, size: 0x8, addend: 0x0, symName: __ZNSt3__135__uninitialized_allocator_copy_implB8ne180100INS_9allocatorI8HashSlotEES2_S2_S2_TnPNS_9enable_ifIXaaaaaasr31is_trivially_copy_constructibleIT1_EE5valuesr28is_trivially_copy_assignableIS5_EE5valuesr7is_sameIu14__remove_constIT0_Eu14__remove_constIT2_EEE5valuesr38__allocator_has_trivial_copy_constructIT_S5_EE5valueEvE4typeELPv0EEEPS8_RSA_PS6_SH_SF_, symObjAddr: 0x2A6C, symBinAddr: 0x1000075B0, symSize: 0x38 }
  - { offset: 0x8C2F, size: 0x8, addend: 0x0, symName: __ZNSt3__113__unwrap_iterB8ne180100IP8HashSlotNS_18__unwrap_iter_implIS2_Lb1EEETnNS_9enable_ifIXsr21is_copy_constructibleIT_EE5valueEiE4typeELi0EEEDTclsrT0_8__unwrapclsr3stdE7declvalIS6_EEEES6_, symObjAddr: 0x2AA4, symBinAddr: 0x1000075E8, symSize: 0x24 }
  - { offset: 0x8C73, size: 0x8, addend: 0x0, symName: __ZNSt3__113__rewrap_iterB8ne180100IP8HashSlotS2_NS_18__unwrap_iter_implIS2_Lb1EEEEET_S5_T0_, symObjAddr: 0x2AC8, symBinAddr: 0x10000760C, symSize: 0x3C }
  - { offset: 0x8CC8, size: 0x8, addend: 0x0, symName: __ZNSt3__19make_pairB8ne180100IP8HashSlotS2_EENS_4pairINS_18__unwrap_ref_decayIT_E4typeENS4_IT0_E4typeEEEOS5_OS8_, symObjAddr: 0x2B04, symBinAddr: 0x100007648, symSize: 0x38 }
  - { offset: 0x8E1A, size: 0x8, addend: 0x0, symName: __ZNSt3__14copyB8ne180100IP8HashSlotS2_EET0_T_S4_S3_, symObjAddr: 0x2BAC, symBinAddr: 0x1000076F0, symSize: 0x40 }
  - { offset: 0x8E74, size: 0x8, addend: 0x0, symName: __ZNSt3__16__copyB8ne180100INS_17_ClassicAlgPolicyEP8HashSlotS3_S3_EENS_4pairIT0_T2_EES5_T1_S6_, symObjAddr: 0x2BEC, symBinAddr: 0x100007730, symSize: 0x44 }
  - { offset: 0x8EE0, size: 0x8, addend: 0x0, symName: __ZNSt3__123__dispatch_copy_or_moveB8ne180100INS_17_ClassicAlgPolicyENS_11__copy_loopIS1_EENS_14__copy_trivialEP8HashSlotS6_S6_EENS_4pairIT2_T4_EES8_T3_S9_, symObjAddr: 0x2C30, symBinAddr: 0x100007774, symSize: 0x44 }
  - { offset: 0x8F5E, size: 0x8, addend: 0x0, symName: __ZNSt3__121__unwrap_and_dispatchB8ne180100INS_10__overloadINS_11__copy_loopINS_17_ClassicAlgPolicyEEENS_14__copy_trivialEEEP8HashSlotS8_S8_TnNS_9enable_ifIXsr12__can_rewrapIT0_T1_T2_EE5valueEiE4typeELi0EEENS_4pairISA_SC_EESA_SB_SC_, symObjAddr: 0x2C74, symBinAddr: 0x1000077B8, symSize: 0xB4 }
  - { offset: 0x9032, size: 0x8, addend: 0x0, symName: __ZNSt3__114__rewrap_rangeB8ne180100IP8HashSlotS2_EET_S3_T0_, symObjAddr: 0x2D70, symBinAddr: 0x1000078B4, symSize: 0x2C }
  - { offset: 0x907E, size: 0x8, addend: 0x0, symName: __ZNSt3__119__copy_trivial_implB8ne180100I8HashSlotS1_EENS_4pairIPT_PT0_EES4_S4_S6_, symObjAddr: 0x2D9C, symBinAddr: 0x1000078E0, symSize: 0x80 }
  - { offset: 0x90E6, size: 0x8, addend: 0x0, symName: __ZNSt3__119__constexpr_memmoveB8ne180100I8HashSlotS1_TnNS_9enable_ifIXsr23__is_always_bitcastableIT0_T_EE5valueEiE4typeELi0EEEPS4_S7_PS3_NS_15__element_countE, symObjAddr: 0x2E1C, symBinAddr: 0x100007960, symSize: 0x60 }
  - { offset: 0x9154, size: 0x8, addend: 0x0, symName: __ZNSt3__19make_pairB8ne180100IRP8HashSlotS2_EENS_4pairINS_18__unwrap_ref_decayIT_E4typeENS5_IT0_E4typeEEEOS6_OS9_, symObjAddr: 0x2E7C, symBinAddr: 0x1000079C0, symSize: 0x38 }
  - { offset: 0x91F6, size: 0x8, addend: 0x0, symName: __ZNSt3__16fill_nB8ne180100IP8HashSlotmS1_EET_S3_T0_RKT1_, symObjAddr: 0x2F98, symBinAddr: 0x100007ADC, symSize: 0x44 }
  - { offset: 0x9259, size: 0x8, addend: 0x0, symName: __ZNSt3__18__fill_nB8ne180100IP8HashSlotmS1_EET_S3_T0_RKT1_, symObjAddr: 0x322C, symBinAddr: 0x100007D70, symSize: 0x60 }
  - { offset: 0x92BC, size: 0x8, addend: 0x0, symName: __ZNSt3__121__convert_to_integralB8ne180100Em, symObjAddr: 0x328C, symBinAddr: 0x100007DD0, symSize: 0x14 }
  - { offset: 0x92E8, size: 0x8, addend: 0x0, symName: __ZNSt3__13maxB8ne180100ImEERKT_S3_S3_, symObjAddr: 0x3354, symBinAddr: 0x100007E98, symSize: 0x2C }
  - { offset: 0x932B, size: 0x8, addend: 0x0, symName: __ZNSt3__13maxB8ne180100ImNS_6__lessIvvEEEERKT_S5_S5_T0_, symObjAddr: 0x3380, symBinAddr: 0x100007EC4, symSize: 0x54 }
  - { offset: 0x9385, size: 0x8, addend: 0x0, symName: __ZNSt3__1eqB8ne180100IP8HashSlotEEbRKNS_11__wrap_iterIT_EES7_, symObjAddr: 0x3458, symBinAddr: 0x100007F9C, symSize: 0x44 }
  - { offset: 0x93C8, size: 0x8, addend: 0x0, symName: __ZNSt3__122__make_exception_guardB8ne180100INS_6vectorINS_4listIiNS_9allocatorIiEEEENS3_IS5_EEE16__destroy_vectorEEENS_28__exception_guard_exceptionsIT_EESA_, symObjAddr: 0x36B8, symBinAddr: 0x1000081FC, symSize: 0x40 }
  - { offset: 0x93FD, size: 0x8, addend: 0x0, symName: __ZNSt3__119__allocate_at_leastB8ne180100INS_9allocatorINS_4listIiNS1_IiEEEEEEEENS_19__allocation_resultINS_16allocator_traitsIT_E7pointerEEERS8_m, symObjAddr: 0x3AA4, symBinAddr: 0x1000085E8, symSize: 0x40 }
  - { offset: 0x9440, size: 0x8, addend: 0x0, symName: __ZNSt3__112__to_addressB8ne180100INS_4listIiNS_9allocatorIiEEEEEEPT_S6_, symObjAddr: 0x3D14, symBinAddr: 0x100008858, symSize: 0x14 }
  - { offset: 0x9586, size: 0x8, addend: 0x0, symName: __ZNSt3__112__destroy_atB8ne180100INS_11__list_nodeIiPvEETnNS_9enable_ifIXntsr8is_arrayIT_EE5valueEiE4typeELi0EEEvPS5_, symObjAddr: 0x463C, symBinAddr: 0x100009180, symSize: 0x24 }
  - { offset: 0x95BD, size: 0x8, addend: 0x0, symName: __ZNSt3__112__destroy_atB8ne180100IiTnNS_9enable_ifIXntsr8is_arrayIT_EE5valueEiE4typeELi0EEEvPS2_, symObjAddr: 0x46CC, symBinAddr: 0x100009210, symSize: 0x10 }
  - { offset: 0x95F4, size: 0x8, addend: 0x0, symName: __ZNSt3__1neB8ne180100ERKNS_15__list_iteratorIiPvEES4_, symObjAddr: 0x48B0, symBinAddr: 0x1000093F4, symSize: 0x30 }
  - { offset: 0x9631, size: 0x8, addend: 0x0, symName: __ZNSt3__1eqB8ne180100ERKNS_15__list_iteratorIiPvEES4_, symObjAddr: 0x4A54, symBinAddr: 0x100009598, symSize: 0x2C }
  - { offset: 0x97A4, size: 0x8, addend: 0x0, symName: __ZNSt3__114__construct_atB8ne180100INS_11__list_nodeIiPvEEJRPNS_16__list_node_baseIiS2_EES7_EPS3_EEPT_SA_DpOT0_, symObjAddr: 0x4C0C, symBinAddr: 0x100009750, symSize: 0x4C }
  - { offset: 0x9827, size: 0x8, addend: 0x0, symName: __ZNSt3__1neB8ne180100ERKNS_21__list_const_iteratorIiPvEES4_, symObjAddr: 0x4FB8, symBinAddr: 0x100009AFC, symSize: 0x30 }
  - { offset: 0x9864, size: 0x8, addend: 0x0, symName: __ZNSt3__1eqB8ne180100ERKNS_21__list_const_iteratorIiPvEES4_, symObjAddr: 0x50EC, symBinAddr: 0x100009C30, symSize: 0x2C }
  - { offset: 0x98A1, size: 0x8, addend: 0x0, symName: __ZNSt3__113__countl_zeroB8ne180100IjEEiT_, symObjAddr: 0x5868, symBinAddr: 0x10000A3AC, symSize: 0x4C }
  - { offset: 0x98D6, size: 0x8, addend: 0x0, symName: __ZNSt3__112__libcpp_clzB8ne180100Ej, symObjAddr: 0x5B1C, symBinAddr: 0x10000A660, symSize: 0x18 }
  - { offset: 0x9902, size: 0x8, addend: 0x0, symName: __ZNSt3__116__pad_and_outputB8ne180100IcNS_11char_traitsIcEEEENS_19ostreambuf_iteratorIT_T0_EES6_PKS4_S8_S8_RNS_8ios_baseES4_, symObjAddr: 0x5D74, symBinAddr: 0x10000A8B8, symSize: 0x214 }
  - { offset: 0x99D1, size: 0x8, addend: 0x0, symName: __ZNSt3__112__to_addressB8ne180100IcEEPT_S2_, symObjAddr: 0x626C, symBinAddr: 0x10000ADB0, symSize: 0x14 }
  - { offset: 0x9A39, size: 0x8, addend: 0x0, symName: __ZNSt3__19use_facetB8ne180100INS_5ctypeIcEEEERKT_RKNS_6localeE, symObjAddr: 0x64B0, symBinAddr: 0x10000AFF4, symSize: 0x2C }
  - { offset: 0x9F06, size: 0x8, addend: 0x0, symName: __ZNSt3__118__constexpr_strlenB8ne180100EPKc, symObjAddr: 0x6548, symBinAddr: 0x10000B08C, symSize: 0x24 }
  - { offset: 0xAF3B, size: 0x8, addend: 0x0, symName: __ZSt28__throw_bad_array_new_lengthB8ne180100v, symObjAddr: 0x1C30, symBinAddr: 0x100006774, symSize: 0x34 }
  - { offset: 0xB8DD, size: 0x8, addend: 0x0, symName: __ZNSt3__124uniform_int_distributionIiEclINS_23mersenne_twister_engineIjLm32ELm624ELm397ELm31ELj2567483615ELm11ELj4294967295ELm7ELj2636928640ELm15ELj4022730752ELm18ELj1812433253EEEEEiRT_RKNS1_10param_typeE, symObjAddr: 0x5664, symBinAddr: 0x10000A1A8, symSize: 0x174 }
  - { offset: 0xBAA8, size: 0x8, addend: 0x0, symName: __Z16hashSquareMiddleim, symObjAddr: 0x0, symBinAddr: 0x100004B44, symSize: 0x1D4 }
  - { offset: 0xBB3B, size: 0x8, addend: 0x0, symName: __ZNKSt3__112basic_stringIcNS_11char_traitsIcEENS_9allocatorIcEEE4sizeB8ne180100Ev, symObjAddr: 0x1D4, symBinAddr: 0x100004D18, symSize: 0x54 }
  - { offset: 0xBB61, size: 0x8, addend: 0x0, symName: __ZNKSt3__112basic_stringIcNS_11char_traitsIcEENS_9allocatorIcEEE6substrB8ne180100Emm, symObjAddr: 0x254, symBinAddr: 0x100004D98, symSize: 0x68 }
  - { offset: 0xBBA4, size: 0x8, addend: 0x0, symName: __Z12hashModPrimeim, symObjAddr: 0x2BC, symBinAddr: 0x100004E00, symSize: 0x5C }
  - { offset: 0xBBED, size: 0x8, addend: 0x0, symName: __ZNSt3__123mersenne_twister_engineIjLm32ELm624ELm397ELm31ELj2567483615ELm11ELj4294967295ELm7ELj2636928640ELm15ELj4022730752ELm18ELj1812433253EEC1B8ne180100Ej, symObjAddr: 0x410, symBinAddr: 0x100004F54, symSize: 0x34 }
  - { offset: 0xBC25, size: 0x8, addend: 0x0, symName: __ZNSt3__124uniform_int_distributionIiEC1B8ne180100Eii, symObjAddr: 0x444, symBinAddr: 0x100004F88, symSize: 0x3C }
  - { offset: 0xBC6B, size: 0x8, addend: 0x0, symName: __ZNSt3__123mersenne_twister_engineIjLm32ELm624ELm397ELm31ELj2567483615ELm11ELj4294967295ELm7ELj2636928640ELm15ELj4022730752ELm18ELj1812433253EE7discardB8ne180100Ey, symObjAddr: 0x480, symBinAddr: 0x100004FC4, symSize: 0x54 }
  - { offset: 0xBC9F, size: 0x8, addend: 0x0, symName: __ZNSt3__124uniform_int_distributionIiEclB8ne180100INS_23mersenne_twister_engineIjLm32ELm624ELm397ELm31ELj2567483615ELm11ELj4294967295ELm7ELj2636928640ELm15ELj4022730752ELm18ELj1812433253EEEEEiRT_, symObjAddr: 0x4D4, symBinAddr: 0x100005018, symSize: 0x30 }
  - { offset: 0xBCDC, size: 0x8, addend: 0x0, symName: _main, symObjAddr: 0x504, symBinAddr: 0x100005048, symSize: 0x5C8 }
  - { offset: 0xBE39, size: 0x8, addend: 0x0, symName: __ZN20OpenAddressHashTableC1EmNS_9ProbeTypeE, symObjAddr: 0xB14, symBinAddr: 0x100005658, symSize: 0x3C }
  - { offset: 0xBE7F, size: 0x8, addend: 0x0, symName: __ZN20OpenAddressHashTable6insertEi, symObjAddr: 0xB50, symBinAddr: 0x100005694, symSize: 0x1DC }
  - { offset: 0xBF15, size: 0x8, addend: 0x0, symName: __ZNK20OpenAddressHashTable10debugPrintEv, symObjAddr: 0xD2C, symBinAddr: 0x100005870, symSize: 0x190 }
  - { offset: 0xBF57, size: 0x8, addend: 0x0, symName: __ZNK20OpenAddressHashTable4findEi, symObjAddr: 0xEBC, symBinAddr: 0x100005A00, symSize: 0x13C }
  - { offset: 0xBFED, size: 0x8, addend: 0x0, symName: __ZN20OpenAddressHashTableD1Ev, symObjAddr: 0xFF8, symBinAddr: 0x100005B3C, symSize: 0x2C }
  - { offset: 0xC0BF, size: 0x8, addend: 0x0, symName: __ZN16ChainedHashTableC1Em, symObjAddr: 0x1024, symBinAddr: 0x100005B68, symSize: 0x34 }
  - { offset: 0xC0F8, size: 0x8, addend: 0x0, symName: __ZN16ChainedHashTable6insertEi, symObjAddr: 0x1058, symBinAddr: 0x100005B9C, symSize: 0xD8 }
  - { offset: 0xC19D, size: 0x8, addend: 0x0, symName: __ZNK16ChainedHashTable10debugPrintEv, symObjAddr: 0x1130, symBinAddr: 0x100005C74, symSize: 0x15C }
  - { offset: 0xC232, size: 0x8, addend: 0x0, symName: __ZNK16ChainedHashTable4findEi, symObjAddr: 0x128C, symBinAddr: 0x100005DD0, symSize: 0xF4 }
  - { offset: 0xC2D7, size: 0x8, addend: 0x0, symName: __ZN16ChainedHashTableD1Ev, symObjAddr: 0x1380, symBinAddr: 0x100005EC4, symSize: 0x2C }
  - { offset: 0xC30E, size: 0x8, addend: 0x0, symName: __ZNKSt3__16__lessIvvEclB8ne180100ImmEEbRKT_RKT0_, symObjAddr: 0x1400, symBinAddr: 0x100005F44, symSize: 0x30 }
  - { offset: 0xC362, size: 0x8, addend: 0x0, symName: __ZN20OpenAddressHashTableC2EmNS_9ProbeTypeE, symObjAddr: 0x1430, symBinAddr: 0x100005F74, symSize: 0x44 }
  - { offset: 0xC3A8, size: 0x8, addend: 0x0, symName: __ZNSt3__16vectorI8HashSlotNS_9allocatorIS1_EEEC1Em, symObjAddr: 0x1474, symBinAddr: 0x100005FB8, symSize: 0x34 }
  - { offset: 0xC3E3, size: 0x8, addend: 0x0, symName: __ZNSt3__16vectorI8HashSlotNS_9allocatorIS1_EEEC2Em, symObjAddr: 0x14A8, symBinAddr: 0x100005FEC, symSize: 0xD0 }
  - { offset: 0xC43F, size: 0x8, addend: 0x0, symName: __ZNSt3__117__compressed_pairIP8HashSlotNS_9allocatorIS1_EEEC1B8ne180100IDnNS_18__default_init_tagEEEOT_OT0_, symObjAddr: 0x1578, symBinAddr: 0x1000060BC, symSize: 0x3C }
  - { offset: 0xC497, size: 0x8, addend: 0x0, symName: __ZNSt3__16vectorI8HashSlotNS_9allocatorIS1_EEE16__destroy_vectorC1B8ne180100ERS4_, symObjAddr: 0x15F4, symBinAddr: 0x100006138, symSize: 0x34 }
  - { offset: 0xC4D0, size: 0x8, addend: 0x0, symName: __ZNSt3__16vectorI8HashSlotNS_9allocatorIS1_EEE11__vallocateB8ne180100Em, symObjAddr: 0x1628, symBinAddr: 0x10000616C, symSize: 0xA8 }
  - { offset: 0xC514, size: 0x8, addend: 0x0, symName: __ZNSt3__16vectorI8HashSlotNS_9allocatorIS1_EEE18__construct_at_endEm, symObjAddr: 0x16D0, symBinAddr: 0x100006214, symSize: 0xC4 }
  - { offset: 0xC586, size: 0x8, addend: 0x0, symName: __ZNSt3__128__exception_guard_exceptionsINS_6vectorI8HashSlotNS_9allocatorIS2_EEE16__destroy_vectorEE10__completeB8ne180100Ev, symObjAddr: 0x1794, symBinAddr: 0x1000062D8, symSize: 0x1C }
  - { offset: 0xC5AC, size: 0x8, addend: 0x0, symName: __ZNSt3__128__exception_guard_exceptionsINS_6vectorI8HashSlotNS_9allocatorIS2_EEE16__destroy_vectorEED1B8ne180100Ev, symObjAddr: 0x17B0, symBinAddr: 0x1000062F4, symSize: 0x2C }
  - { offset: 0xC5D6, size: 0x8, addend: 0x0, symName: __ZNSt3__117__compressed_pairIP8HashSlotNS_9allocatorIS1_EEEC2B8ne180100IDnNS_18__default_init_tagEEEOT_OT0_, symObjAddr: 0x17DC, symBinAddr: 0x100006320, symSize: 0x40 }
  - { offset: 0xC62E, size: 0x8, addend: 0x0, symName: __ZNSt3__122__compressed_pair_elemIP8HashSlotLi0ELb0EEC2B8ne180100IDnvEEOT_, symObjAddr: 0x181C, symBinAddr: 0x100006360, symSize: 0x1C }
  - { offset: 0xC670, size: 0x8, addend: 0x0, symName: __ZNSt3__122__compressed_pair_elemINS_9allocatorI8HashSlotEELi1ELb1EEC2B8ne180100ENS_18__default_init_tagE, symObjAddr: 0x1838, symBinAddr: 0x10000637C, symSize: 0x2C }
  - { offset: 0xC6A5, size: 0x8, addend: 0x0, symName: __ZNSt3__19allocatorI8HashSlotEC2B8ne180100Ev, symObjAddr: 0x1864, symBinAddr: 0x1000063A8, symSize: 0x2C }
  - { offset: 0xC6CF, size: 0x8, addend: 0x0, symName: __ZNSt3__116__non_trivial_ifILb1ENS_9allocatorI8HashSlotEEEC2B8ne180100Ev, symObjAddr: 0x1890, symBinAddr: 0x1000063D4, symSize: 0x14 }
  - { offset: 0xC6F9, size: 0x8, addend: 0x0, symName: __ZNSt3__128__exception_guard_exceptionsINS_6vectorI8HashSlotNS_9allocatorIS2_EEE16__destroy_vectorEEC1B8ne180100ES6_, symObjAddr: 0x18A4, symBinAddr: 0x1000063E8, symSize: 0x34 }
  - { offset: 0xC731, size: 0x8, addend: 0x0, symName: __ZNSt3__128__exception_guard_exceptionsINS_6vectorI8HashSlotNS_9allocatorIS2_EEE16__destroy_vectorEEC2B8ne180100ES6_, symObjAddr: 0x18D8, symBinAddr: 0x10000641C, symSize: 0x24 }
  - { offset: 0xC769, size: 0x8, addend: 0x0, symName: __ZNSt3__16vectorI8HashSlotNS_9allocatorIS1_EEE16__destroy_vectorC2B8ne180100ERS4_, symObjAddr: 0x18FC, symBinAddr: 0x100006440, symSize: 0x20 }
  - { offset: 0xC7A2, size: 0x8, addend: 0x0, symName: __ZNKSt3__16vectorI8HashSlotNS_9allocatorIS1_EEE8max_sizeEv, symObjAddr: 0x191C, symBinAddr: 0x100006460, symSize: 0x60 }
  - { offset: 0xC7CA, size: 0x8, addend: 0x0, symName: __ZNKSt3__16vectorI8HashSlotNS_9allocatorIS1_EEE20__throw_length_errorB8ne180100Ev, symObjAddr: 0x197C, symBinAddr: 0x1000064C0, symSize: 0x1C }
  - { offset: 0xC7F0, size: 0x8, addend: 0x0, symName: __ZNSt3__16vectorI8HashSlotNS_9allocatorIS1_EEE7__allocB8ne180100Ev, symObjAddr: 0x19D8, symBinAddr: 0x10000651C, symSize: 0x28 }
  - { offset: 0xC816, size: 0x8, addend: 0x0, symName: __ZNSt3__16vectorI8HashSlotNS_9allocatorIS1_EEE9__end_capB8ne180100Ev, symObjAddr: 0x1A00, symBinAddr: 0x100006544, symSize: 0x28 }
  - { offset: 0xC83C, size: 0x8, addend: 0x0, symName: __ZNKSt3__16vectorI8HashSlotNS_9allocatorIS1_EEE14__annotate_newB8ne180100Em, symObjAddr: 0x1A28, symBinAddr: 0x10000656C, symSize: 0x14 }
  - { offset: 0xC87C, size: 0x8, addend: 0x0, symName: __ZNSt3__116allocator_traitsINS_9allocatorI8HashSlotEEE8max_sizeB8ne180100IS3_vEEmRKS3_, symObjAddr: 0x1A3C, symBinAddr: 0x100006580, symSize: 0x24 }
  - { offset: 0xC8AA, size: 0x8, addend: 0x0, symName: __ZNKSt3__16vectorI8HashSlotNS_9allocatorIS1_EEE7__allocB8ne180100Ev, symObjAddr: 0x1A60, symBinAddr: 0x1000065A4, symSize: 0x28 }
  - { offset: 0xC8D0, size: 0x8, addend: 0x0, symName: __ZNSt3__114numeric_limitsIlE3maxB8ne180100Ev, symObjAddr: 0x1A88, symBinAddr: 0x1000065CC, symSize: 0x14 }
  - { offset: 0xC8E4, size: 0x8, addend: 0x0, symName: __ZNKSt3__19allocatorI8HashSlotE8max_sizeB8ne180100Ev, symObjAddr: 0x1AAC, symBinAddr: 0x1000065F0, symSize: 0x14 }
  - { offset: 0xC90A, size: 0x8, addend: 0x0, symName: __ZNKSt3__117__compressed_pairIP8HashSlotNS_9allocatorIS1_EEE6secondB8ne180100Ev, symObjAddr: 0x1AC0, symBinAddr: 0x100006604, symSize: 0x24 }
  - { offset: 0xC930, size: 0x8, addend: 0x0, symName: __ZNKSt3__122__compressed_pair_elemINS_9allocatorI8HashSlotEELi1ELb1EE5__getB8ne180100Ev, symObjAddr: 0x1AE4, symBinAddr: 0x100006628, symSize: 0x14 }
  - { offset: 0xC956, size: 0x8, addend: 0x0, symName: __ZNSt3__123__libcpp_numeric_limitsIlLb1EE3maxB8ne180100Ev, symObjAddr: 0x1AF8, symBinAddr: 0x10000663C, symSize: 0x8 }
  - { offset: 0xC96A, size: 0x8, addend: 0x0, symName: __ZNSt12length_errorC1B8ne180100EPKc, symObjAddr: 0x1B64, symBinAddr: 0x1000066A8, symSize: 0x34 }
  - { offset: 0xC9A2, size: 0x8, addend: 0x0, symName: __ZNSt12length_errorC2B8ne180100EPKc, symObjAddr: 0x1B98, symBinAddr: 0x1000066DC, symSize: 0x44 }
  - { offset: 0xC9DA, size: 0x8, addend: 0x0, symName: __ZNSt3__19allocatorI8HashSlotE8allocateB8ne180100Em, symObjAddr: 0x1BDC, symBinAddr: 0x100006720, symSize: 0x54 }
  - { offset: 0xCA0E, size: 0x8, addend: 0x0, symName: __ZNSt3__117__compressed_pairIP8HashSlotNS_9allocatorIS1_EEE6secondB8ne180100Ev, symObjAddr: 0x1D30, symBinAddr: 0x100006874, symSize: 0x24 }
  - { offset: 0xCA34, size: 0x8, addend: 0x0, symName: __ZNSt3__122__compressed_pair_elemINS_9allocatorI8HashSlotEELi1ELb1EE5__getB8ne180100Ev, symObjAddr: 0x1D54, symBinAddr: 0x100006898, symSize: 0x14 }
  - { offset: 0xCA5A, size: 0x8, addend: 0x0, symName: __ZNSt3__117__compressed_pairIP8HashSlotNS_9allocatorIS1_EEE5firstB8ne180100Ev, symObjAddr: 0x1D68, symBinAddr: 0x1000068AC, symSize: 0x24 }
  - { offset: 0xCA80, size: 0x8, addend: 0x0, symName: __ZNSt3__122__compressed_pair_elemIP8HashSlotLi0ELb0EE5__getB8ne180100Ev, symObjAddr: 0x1D8C, symBinAddr: 0x1000068D0, symSize: 0x14 }
  - { offset: 0xCAC1, size: 0x8, addend: 0x0, symName: __ZNSt3__16vectorI8HashSlotNS_9allocatorIS1_EEE21_ConstructTransactionC1B8ne180100ERS4_m, symObjAddr: 0x1DA0, symBinAddr: 0x1000068E4, symSize: 0x3C }
  - { offset: 0xCB09, size: 0x8, addend: 0x0, symName: __ZNSt3__116allocator_traitsINS_9allocatorI8HashSlotEEE9constructB8ne180100IS2_JEvEEvRS3_PT_DpOT0_, symObjAddr: 0x1DDC, symBinAddr: 0x100006920, symSize: 0x2C }
  - { offset: 0xCB4B, size: 0x8, addend: 0x0, symName: __ZNSt3__16vectorI8HashSlotNS_9allocatorIS1_EEE21_ConstructTransactionD1B8ne180100Ev, symObjAddr: 0x1E1C, symBinAddr: 0x100006960, symSize: 0x2C }
  - { offset: 0xCB75, size: 0x8, addend: 0x0, symName: __ZNSt3__16vectorI8HashSlotNS_9allocatorIS1_EEE21_ConstructTransactionC2B8ne180100ERS4_m, symObjAddr: 0x1E48, symBinAddr: 0x10000698C, symSize: 0x44 }
  - { offset: 0xCBBD, size: 0x8, addend: 0x0, symName: __ZNSt3__19allocatorI8HashSlotE9constructB8ne180100IS1_JEEEvPT_DpOT0_, symObjAddr: 0x1E8C, symBinAddr: 0x1000069D0, symSize: 0x28 }
  - { offset: 0xCBFF, size: 0x8, addend: 0x0, symName: __ZN8HashSlotC1Ev, symObjAddr: 0x1EB4, symBinAddr: 0x1000069F8, symSize: 0x2C }
  - { offset: 0xCC29, size: 0x8, addend: 0x0, symName: __ZN8HashSlotC2Ev, symObjAddr: 0x1EE0, symBinAddr: 0x100006A24, symSize: 0x1C }
  - { offset: 0xCC53, size: 0x8, addend: 0x0, symName: __ZNSt3__16vectorI8HashSlotNS_9allocatorIS1_EEE21_ConstructTransactionD2B8ne180100Ev, symObjAddr: 0x1EFC, symBinAddr: 0x100006A40, symSize: 0x20 }
  - { offset: 0xCC7D, size: 0x8, addend: 0x0, symName: __ZNSt3__128__exception_guard_exceptionsINS_6vectorI8HashSlotNS_9allocatorIS2_EEE16__destroy_vectorEED2B8ne180100Ev, symObjAddr: 0x1F1C, symBinAddr: 0x100006A60, symSize: 0x50 }
  - { offset: 0xCCA7, size: 0x8, addend: 0x0, symName: __ZNSt3__16vectorI8HashSlotNS_9allocatorIS1_EEE16__destroy_vectorclB8ne180100Ev, symObjAddr: 0x1F6C, symBinAddr: 0x100006AB0, symSize: 0x88 }
  - { offset: 0xCCCD, size: 0x8, addend: 0x0, symName: __ZNSt3__16vectorI8HashSlotNS_9allocatorIS1_EEE7__clearB8ne180100Ev, symObjAddr: 0x1FF4, symBinAddr: 0x100006B38, symSize: 0x28 }
  - { offset: 0xCCF3, size: 0x8, addend: 0x0, symName: __ZNKSt3__16vectorI8HashSlotNS_9allocatorIS1_EEE17__annotate_deleteB8ne180100Ev, symObjAddr: 0x201C, symBinAddr: 0x100006B60, symSize: 0x10 }
  - { offset: 0xCD19, size: 0x8, addend: 0x0, symName: __ZNSt3__116allocator_traitsINS_9allocatorI8HashSlotEEE10deallocateB8ne180100ERS3_PS2_m, symObjAddr: 0x202C, symBinAddr: 0x100006B70, symSize: 0x34 }
  - { offset: 0xCD5B, size: 0x8, addend: 0x0, symName: __ZNKSt3__16vectorI8HashSlotNS_9allocatorIS1_EEE8capacityB8ne180100Ev, symObjAddr: 0x2060, symBinAddr: 0x100006BA4, symSize: 0x40 }
  - { offset: 0xCD81, size: 0x8, addend: 0x0, symName: __ZNSt3__16vectorI8HashSlotNS_9allocatorIS1_EEE22__base_destruct_at_endB8ne180100EPS1_, symObjAddr: 0x20A0, symBinAddr: 0x100006BE4, symSize: 0x88 }
  - { offset: 0xCDC5, size: 0x8, addend: 0x0, symName: __ZNSt3__116allocator_traitsINS_9allocatorI8HashSlotEEE7destroyB8ne180100IS2_vEEvRS3_PT_, symObjAddr: 0x2128, symBinAddr: 0x100006C6C, symSize: 0x2C }
  - { offset: 0xCE02, size: 0x8, addend: 0x0, symName: __ZNSt3__19allocatorI8HashSlotE7destroyB8ne180100EPS1_, symObjAddr: 0x2154, symBinAddr: 0x100006C98, symSize: 0x14 }
  - { offset: 0xCE36, size: 0x8, addend: 0x0, symName: __ZNSt3__19allocatorI8HashSlotE10deallocateB8ne180100EPS1_m, symObjAddr: 0x2168, symBinAddr: 0x100006CAC, symSize: 0x40 }
  - { offset: 0xCE78, size: 0x8, addend: 0x0, symName: __ZNKSt3__16vectorI8HashSlotNS_9allocatorIS1_EEE9__end_capB8ne180100Ev, symObjAddr: 0x22B0, symBinAddr: 0x100006DF4, symSize: 0x28 }
  - { offset: 0xCE9E, size: 0x8, addend: 0x0, symName: __ZNKSt3__117__compressed_pairIP8HashSlotNS_9allocatorIS1_EEE5firstB8ne180100Ev, symObjAddr: 0x22D8, symBinAddr: 0x100006E1C, symSize: 0x24 }
  - { offset: 0xCEC4, size: 0x8, addend: 0x0, symName: __ZNKSt3__122__compressed_pair_elemIP8HashSlotLi0ELb0EE5__getB8ne180100Ev, symObjAddr: 0x22FC, symBinAddr: 0x100006E40, symSize: 0x14 }
  - { offset: 0xCEEA, size: 0x8, addend: 0x0, symName: __ZNK20OpenAddressHashTable10loadFactorEv, symObjAddr: 0x2310, symBinAddr: 0x100006E54, symSize: 0x3C }
  - { offset: 0xCF10, size: 0x8, addend: 0x0, symName: __ZN20OpenAddressHashTable6rehashEm, symObjAddr: 0x234C, symBinAddr: 0x100006E90, symSize: 0x108 }
  - { offset: 0xCF9C, size: 0x8, addend: 0x0, symName: __ZNKSt3__16vectorI8HashSlotNS_9allocatorIS1_EEE4sizeB8ne180100Ev, symObjAddr: 0x2454, symBinAddr: 0x100006F98, symSize: 0x28 }
  - { offset: 0xCFC2, size: 0x8, addend: 0x0, symName: __ZNK20OpenAddressHashTable11probeOffsetEm, symObjAddr: 0x247C, symBinAddr: 0x100006FC0, symSize: 0x48 }
  - { offset: 0xCFF6, size: 0x8, addend: 0x0, symName: __ZNSt3__16vectorI8HashSlotNS_9allocatorIS1_EEEixB8ne180100Em, symObjAddr: 0x24C4, symBinAddr: 0x100007008, symSize: 0x24 }
  - { offset: 0xD02D, size: 0x8, addend: 0x0, symName: __ZNSt3__16vectorI8HashSlotNS_9allocatorIS1_EEEC1ERKS4_, symObjAddr: 0x24E8, symBinAddr: 0x10000702C, symSize: 0x34 }
  - { offset: 0xD068, size: 0x8, addend: 0x0, symName: __ZNSt3__16vectorI8HashSlotNS_9allocatorIS1_EEE6assignEmRKS1_, symObjAddr: 0x251C, symBinAddr: 0x100007060, symSize: 0x100 }
  - { offset: 0xD0CB, size: 0x8, addend: 0x0, symName: __ZNSt3__16vectorI8HashSlotNS_9allocatorIS1_EEE5beginB8ne180100Ev, symObjAddr: 0x261C, symBinAddr: 0x100007160, symSize: 0x30 }
  - { offset: 0xD0F3, size: 0x8, addend: 0x0, symName: __ZNSt3__16vectorI8HashSlotNS_9allocatorIS1_EEE3endB8ne180100Ev, symObjAddr: 0x264C, symBinAddr: 0x100007190, symSize: 0x30 }
  - { offset: 0xD11B, size: 0x8, addend: 0x0, symName: __ZNKSt3__111__wrap_iterIP8HashSlotEdeB8ne180100Ev, symObjAddr: 0x26AC, symBinAddr: 0x1000071F0, symSize: 0x18 }
  - { offset: 0xD141, size: 0x8, addend: 0x0, symName: __ZNSt3__111__wrap_iterIP8HashSlotEppB8ne180100Ev, symObjAddr: 0x26C4, symBinAddr: 0x100007208, symSize: 0x20 }
  - { offset: 0xD167, size: 0x8, addend: 0x0, symName: __ZNSt3__16vectorI8HashSlotNS_9allocatorIS1_EEED1B8ne180100Ev, symObjAddr: 0x26E4, symBinAddr: 0x100007228, symSize: 0x2C }
  - { offset: 0xD191, size: 0x8, addend: 0x0, symName: __ZNSt3__16vectorI8HashSlotNS_9allocatorIS1_EEEC2ERKS4_, symObjAddr: 0x2710, symBinAddr: 0x100007254, symSize: 0x94 }
  - { offset: 0xD1CC, size: 0x8, addend: 0x0, symName: __ZNSt3__116allocator_traitsINS_9allocatorI8HashSlotEEE37select_on_container_copy_constructionB8ne180100IS3_vvEES3_RKS3_, symObjAddr: 0x27A4, symBinAddr: 0x1000072E8, symSize: 0x10 }
  - { offset: 0xD201, size: 0x8, addend: 0x0, symName: __ZNSt3__117__compressed_pairIP8HashSlotNS_9allocatorIS1_EEEC1B8ne180100IDnS4_EEOT_OT0_, symObjAddr: 0x27B4, symBinAddr: 0x1000072F8, symSize: 0x3C }
  - { offset: 0xD259, size: 0x8, addend: 0x0, symName: __ZNSt3__16vectorI8HashSlotNS_9allocatorIS1_EEE16__init_with_sizeB8ne180100IPS1_S6_EEvT_T0_m, symObjAddr: 0x27F0, symBinAddr: 0x100007334, symSize: 0xB4 }
  - { offset: 0xD2CD, size: 0x8, addend: 0x0, symName: __ZNSt3__117__compressed_pairIP8HashSlotNS_9allocatorIS1_EEEC2B8ne180100IDnS4_EEOT_OT0_, symObjAddr: 0x28A4, symBinAddr: 0x1000073E8, symSize: 0x44 }
  - { offset: 0xD325, size: 0x8, addend: 0x0, symName: __ZNSt3__122__compressed_pair_elemINS_9allocatorI8HashSlotEELi1ELb1EEC2B8ne180100IS3_vEEOT_, symObjAddr: 0x28E8, symBinAddr: 0x10000742C, symSize: 0x18 }
  - { offset: 0xD367, size: 0x8, addend: 0x0, symName: __ZNSt3__16vectorI8HashSlotNS_9allocatorIS1_EEE18__construct_at_endIPS1_S6_EEvT_T0_m, symObjAddr: 0x2900, symBinAddr: 0x100007444, symSize: 0x8C }
  - { offset: 0xD3FD, size: 0x8, addend: 0x0, symName: __ZNSt3__14pairIP8HashSlotS2_EC1B8ne180100IS2_S2_TnNS_9enable_ifIXclsr10_CheckArgsE17__enable_implicitIT_T0_EEEiE4typeELi0EEEOS6_OS7_, symObjAddr: 0x2B3C, symBinAddr: 0x100007680, symSize: 0x3C }
  - { offset: 0xD45B, size: 0x8, addend: 0x0, symName: __ZNSt3__14pairIP8HashSlotS2_EC2B8ne180100IS2_S2_TnNS_9enable_ifIXclsr10_CheckArgsE17__enable_implicitIT_T0_EEEiE4typeELi0EEEOS6_OS7_, symObjAddr: 0x2B78, symBinAddr: 0x1000076BC, symSize: 0x34 }
  - { offset: 0xD4C3, size: 0x8, addend: 0x0, symName: __ZNKSt3__114__copy_trivialclB8ne180100I8HashSlotS2_TnNS_9enable_ifIXsr38__can_lower_copy_assignment_to_memmoveIT_T0_EE5valueEiE4typeELi0EEENS_4pairIPS4_PS5_EES9_S9_SA_, symObjAddr: 0x2D28, symBinAddr: 0x10000786C, symSize: 0x48 }
  - { offset: 0xD52B, size: 0x8, addend: 0x0, symName: __ZNSt3__14pairIP8HashSlotS2_EC1B8ne180100IRS2_S2_TnNS_9enable_ifIXclsr10_CheckArgsE17__enable_implicitIT_T0_EEEiE4typeELi0EEEOS7_OS8_, symObjAddr: 0x2EB4, symBinAddr: 0x1000079F8, symSize: 0x3C }
  - { offset: 0xD589, size: 0x8, addend: 0x0, symName: __ZNSt3__14pairIP8HashSlotS2_EC2B8ne180100IRS2_S2_TnNS_9enable_ifIXclsr10_CheckArgsE17__enable_implicitIT_T0_EEEiE4typeELi0EEEOS7_OS8_, symObjAddr: 0x2EF0, symBinAddr: 0x100007A34, symSize: 0x34 }
  - { offset: 0xD5E7, size: 0x8, addend: 0x0, symName: __ZNSt3__118__unwrap_iter_implIP8HashSlotLb1EE8__unwrapB8ne180100ES2_, symObjAddr: 0x2F24, symBinAddr: 0x100007A68, symSize: 0x24 }
  - { offset: 0xD60A, size: 0x8, addend: 0x0, symName: __ZNSt3__118__unwrap_iter_implIP8HashSlotLb1EE8__rewrapB8ne180100ES2_S2_, symObjAddr: 0x2F48, symBinAddr: 0x100007A8C, symSize: 0x50 }
  - { offset: 0xD63B, size: 0x8, addend: 0x0, symName: __ZNSt3__16vectorI8HashSlotNS_9allocatorIS1_EEE18__construct_at_endEmRKS1_, symObjAddr: 0x2FDC, symBinAddr: 0x100007B20, symSize: 0xCC }
  - { offset: 0xD6BC, size: 0x8, addend: 0x0, symName: __ZNSt3__16vectorI8HashSlotNS_9allocatorIS1_EEE17__destruct_at_endB8ne180100EPS1_, symObjAddr: 0x30A8, symBinAddr: 0x100007BEC, symSize: 0x4C }
  - { offset: 0xD700, size: 0x8, addend: 0x0, symName: __ZNSt3__16vectorI8HashSlotNS_9allocatorIS1_EEE13__vdeallocateEv, symObjAddr: 0x30F4, symBinAddr: 0x100007C38, symSize: 0x8C }
  - { offset: 0xD728, size: 0x8, addend: 0x0, symName: __ZNKSt3__16vectorI8HashSlotNS_9allocatorIS1_EEE11__recommendB8ne180100Em, symObjAddr: 0x3180, symBinAddr: 0x100007CC4, symSize: 0xAC }
  - { offset: 0xD77D, size: 0x8, addend: 0x0, symName: __ZNSt3__116allocator_traitsINS_9allocatorI8HashSlotEEE9constructB8ne180100IS2_JRKS2_EvEEvRS3_PT_DpOT0_, symObjAddr: 0x32A0, symBinAddr: 0x100007DE4, symSize: 0x34 }
  - { offset: 0xD7D4, size: 0x8, addend: 0x0, symName: __ZNSt3__19allocatorI8HashSlotE9constructB8ne180100IS1_JRKS1_EEEvPT_DpOT0_, symObjAddr: 0x32D4, symBinAddr: 0x100007E18, symSize: 0x28 }
  - { offset: 0xD82A, size: 0x8, addend: 0x0, symName: __ZNKSt3__16vectorI8HashSlotNS_9allocatorIS1_EEE17__annotate_shrinkB8ne180100Em, symObjAddr: 0x32FC, symBinAddr: 0x100007E40, symSize: 0x14 }
  - { offset: 0xD85F, size: 0x8, addend: 0x0, symName: __ZNSt3__16vectorI8HashSlotNS_9allocatorIS1_EEE5clearB8ne180100Ev, symObjAddr: 0x3310, symBinAddr: 0x100007E54, symSize: 0x44 }
  - { offset: 0xD894, size: 0x8, addend: 0x0, symName: __ZNSt3__16vectorI8HashSlotNS_9allocatorIS1_EEE11__make_iterB8ne180100EPS1_, symObjAddr: 0x33D4, symBinAddr: 0x100007F18, symSize: 0x30 }
  - { offset: 0xD8C9, size: 0x8, addend: 0x0, symName: __ZNSt3__111__wrap_iterIP8HashSlotEC1B8ne180100ES2_, symObjAddr: 0x3404, symBinAddr: 0x100007F48, symSize: 0x34 }
  - { offset: 0xD901, size: 0x8, addend: 0x0, symName: __ZNSt3__111__wrap_iterIP8HashSlotEC2B8ne180100ES2_, symObjAddr: 0x3438, symBinAddr: 0x100007F7C, symSize: 0x20 }
  - { offset: 0xD939, size: 0x8, addend: 0x0, symName: __ZNKSt3__111__wrap_iterIP8HashSlotE4baseB8ne180100Ev, symObjAddr: 0x349C, symBinAddr: 0x100007FE0, symSize: 0x18 }
  - { offset: 0xD95F, size: 0x8, addend: 0x0, symName: __ZNSt3__16vectorI8HashSlotNS_9allocatorIS1_EEED2B8ne180100Ev, symObjAddr: 0x34B4, symBinAddr: 0x100007FF8, symSize: 0x40 }
  - { offset: 0xD989, size: 0x8, addend: 0x0, symName: __ZNKSt3__16vectorI8HashSlotNS_9allocatorIS1_EEEixB8ne180100Em, symObjAddr: 0x34F4, symBinAddr: 0x100008038, symSize: 0x24 }
  - { offset: 0xD9C0, size: 0x8, addend: 0x0, symName: __ZN20OpenAddressHashTableD2Ev, symObjAddr: 0x3518, symBinAddr: 0x10000805C, symSize: 0x2C }
  - { offset: 0xD9EC, size: 0x8, addend: 0x0, symName: __ZN16ChainedHashTableC2Em, symObjAddr: 0x3544, symBinAddr: 0x100008088, symSize: 0x34 }
  - { offset: 0xDA25, size: 0x8, addend: 0x0, symName: __ZNSt3__16vectorINS_4listIiNS_9allocatorIiEEEENS2_IS4_EEEC1Em, symObjAddr: 0x3578, symBinAddr: 0x1000080BC, symSize: 0x34 }
  - { offset: 0xDA60, size: 0x8, addend: 0x0, symName: __ZNSt3__16vectorINS_4listIiNS_9allocatorIiEEEENS2_IS4_EEEC2Em, symObjAddr: 0x35AC, symBinAddr: 0x1000080F0, symSize: 0xD0 }
  - { offset: 0xDAB0, size: 0x8, addend: 0x0, symName: __ZNSt3__117__compressed_pairIPNS_4listIiNS_9allocatorIiEEEENS2_IS4_EEEC1B8ne180100IDnNS_18__default_init_tagEEEOT_OT0_, symObjAddr: 0x367C, symBinAddr: 0x1000081C0, symSize: 0x3C }
  - { offset: 0xDB08, size: 0x8, addend: 0x0, symName: __ZNSt3__16vectorINS_4listIiNS_9allocatorIiEEEENS2_IS4_EEE16__destroy_vectorC1B8ne180100ERS6_, symObjAddr: 0x36F8, symBinAddr: 0x10000823C, symSize: 0x34 }
  - { offset: 0xDB41, size: 0x8, addend: 0x0, symName: __ZNSt3__16vectorINS_4listIiNS_9allocatorIiEEEENS2_IS4_EEE11__vallocateB8ne180100Em, symObjAddr: 0x372C, symBinAddr: 0x100008270, symSize: 0xB0 }
  - { offset: 0xDB85, size: 0x8, addend: 0x0, symName: __ZNSt3__16vectorINS_4listIiNS_9allocatorIiEEEENS2_IS4_EEE18__construct_at_endEm, symObjAddr: 0x37DC, symBinAddr: 0x100008320, symSize: 0xC4 }
  - { offset: 0xDBF7, size: 0x8, addend: 0x0, symName: __ZNSt3__128__exception_guard_exceptionsINS_6vectorINS_4listIiNS_9allocatorIiEEEENS3_IS5_EEE16__destroy_vectorEE10__completeB8ne180100Ev, symObjAddr: 0x38A0, symBinAddr: 0x1000083E4, symSize: 0x1C }
  - { offset: 0xDC1D, size: 0x8, addend: 0x0, symName: __ZNSt3__128__exception_guard_exceptionsINS_6vectorINS_4listIiNS_9allocatorIiEEEENS3_IS5_EEE16__destroy_vectorEED1B8ne180100Ev, symObjAddr: 0x38BC, symBinAddr: 0x100008400, symSize: 0x2C }
  - { offset: 0xDC47, size: 0x8, addend: 0x0, symName: __ZNSt3__117__compressed_pairIPNS_4listIiNS_9allocatorIiEEEENS2_IS4_EEEC2B8ne180100IDnNS_18__default_init_tagEEEOT_OT0_, symObjAddr: 0x38E8, symBinAddr: 0x10000842C, symSize: 0x40 }
  - { offset: 0xDC9F, size: 0x8, addend: 0x0, symName: __ZNSt3__122__compressed_pair_elemIPNS_4listIiNS_9allocatorIiEEEELi0ELb0EEC2B8ne180100IDnvEEOT_, symObjAddr: 0x3928, symBinAddr: 0x10000846C, symSize: 0x1C }
  - { offset: 0xDCE1, size: 0x8, addend: 0x0, symName: __ZNSt3__122__compressed_pair_elemINS_9allocatorINS_4listIiNS1_IiEEEEEELi1ELb1EEC2B8ne180100ENS_18__default_init_tagE, symObjAddr: 0x3944, symBinAddr: 0x100008488, symSize: 0x2C }
  - { offset: 0xDD16, size: 0x8, addend: 0x0, symName: __ZNSt3__19allocatorINS_4listIiNS0_IiEEEEEC2B8ne180100Ev, symObjAddr: 0x3970, symBinAddr: 0x1000084B4, symSize: 0x2C }
  - { offset: 0xDD40, size: 0x8, addend: 0x0, symName: __ZNSt3__116__non_trivial_ifILb1ENS_9allocatorINS_4listIiNS1_IiEEEEEEEC2B8ne180100Ev, symObjAddr: 0x399C, symBinAddr: 0x1000084E0, symSize: 0x14 }
  - { offset: 0xDD6A, size: 0x8, addend: 0x0, symName: __ZNSt3__128__exception_guard_exceptionsINS_6vectorINS_4listIiNS_9allocatorIiEEEENS3_IS5_EEE16__destroy_vectorEEC1B8ne180100ES8_, symObjAddr: 0x39B0, symBinAddr: 0x1000084F4, symSize: 0x34 }
  - { offset: 0xDDA2, size: 0x8, addend: 0x0, symName: __ZNSt3__128__exception_guard_exceptionsINS_6vectorINS_4listIiNS_9allocatorIiEEEENS3_IS5_EEE16__destroy_vectorEEC2B8ne180100ES8_, symObjAddr: 0x39E4, symBinAddr: 0x100008528, symSize: 0x24 }
  - { offset: 0xDDDA, size: 0x8, addend: 0x0, symName: __ZNSt3__16vectorINS_4listIiNS_9allocatorIiEEEENS2_IS4_EEE16__destroy_vectorC2B8ne180100ERS6_, symObjAddr: 0x3A08, symBinAddr: 0x10000854C, symSize: 0x20 }
  - { offset: 0xDE13, size: 0x8, addend: 0x0, symName: __ZNKSt3__16vectorINS_4listIiNS_9allocatorIiEEEENS2_IS4_EEE8max_sizeEv, symObjAddr: 0x3A28, symBinAddr: 0x10000856C, symSize: 0x60 }
  - { offset: 0xDE3B, size: 0x8, addend: 0x0, symName: __ZNKSt3__16vectorINS_4listIiNS_9allocatorIiEEEENS2_IS4_EEE20__throw_length_errorB8ne180100Ev, symObjAddr: 0x3A88, symBinAddr: 0x1000085CC, symSize: 0x1C }
  - { offset: 0xDE61, size: 0x8, addend: 0x0, symName: __ZNSt3__16vectorINS_4listIiNS_9allocatorIiEEEENS2_IS4_EEE7__allocB8ne180100Ev, symObjAddr: 0x3AE4, symBinAddr: 0x100008628, symSize: 0x28 }
  - { offset: 0xDE87, size: 0x8, addend: 0x0, symName: __ZNSt3__16vectorINS_4listIiNS_9allocatorIiEEEENS2_IS4_EEE9__end_capB8ne180100Ev, symObjAddr: 0x3B0C, symBinAddr: 0x100008650, symSize: 0x28 }
  - { offset: 0xDEAD, size: 0x8, addend: 0x0, symName: __ZNKSt3__16vectorINS_4listIiNS_9allocatorIiEEEENS2_IS4_EEE14__annotate_newB8ne180100Em, symObjAddr: 0x3B34, symBinAddr: 0x100008678, symSize: 0x14 }
  - { offset: 0xDEED, size: 0x8, addend: 0x0, symName: __ZNSt3__116allocator_traitsINS_9allocatorINS_4listIiNS1_IiEEEEEEE8max_sizeB8ne180100IS5_vEEmRKS5_, symObjAddr: 0x3B48, symBinAddr: 0x10000868C, symSize: 0x24 }
  - { offset: 0xDF1B, size: 0x8, addend: 0x0, symName: __ZNKSt3__16vectorINS_4listIiNS_9allocatorIiEEEENS2_IS4_EEE7__allocB8ne180100Ev, symObjAddr: 0x3B6C, symBinAddr: 0x1000086B0, symSize: 0x28 }
  - { offset: 0xDF41, size: 0x8, addend: 0x0, symName: __ZNKSt3__19allocatorINS_4listIiNS0_IiEEEEE8max_sizeB8ne180100Ev, symObjAddr: 0x3B94, symBinAddr: 0x1000086D8, symSize: 0x18 }
  - { offset: 0xDF67, size: 0x8, addend: 0x0, symName: __ZNKSt3__117__compressed_pairIPNS_4listIiNS_9allocatorIiEEEENS2_IS4_EEE6secondB8ne180100Ev, symObjAddr: 0x3BAC, symBinAddr: 0x1000086F0, symSize: 0x24 }
  - { offset: 0xDF8D, size: 0x8, addend: 0x0, symName: __ZNKSt3__122__compressed_pair_elemINS_9allocatorINS_4listIiNS1_IiEEEEEELi1ELb1EE5__getB8ne180100Ev, symObjAddr: 0x3BD0, symBinAddr: 0x100008714, symSize: 0x14 }
  - { offset: 0xDFB3, size: 0x8, addend: 0x0, symName: __ZNSt3__19allocatorINS_4listIiNS0_IiEEEEE8allocateB8ne180100Em, symObjAddr: 0x3BE4, symBinAddr: 0x100008728, symSize: 0x58 }
  - { offset: 0xDFE7, size: 0x8, addend: 0x0, symName: __ZNSt3__117__compressed_pairIPNS_4listIiNS_9allocatorIiEEEENS2_IS4_EEE6secondB8ne180100Ev, symObjAddr: 0x3C3C, symBinAddr: 0x100008780, symSize: 0x24 }
  - { offset: 0xE00D, size: 0x8, addend: 0x0, symName: __ZNSt3__122__compressed_pair_elemINS_9allocatorINS_4listIiNS1_IiEEEEEELi1ELb1EE5__getB8ne180100Ev, symObjAddr: 0x3C60, symBinAddr: 0x1000087A4, symSize: 0x14 }
  - { offset: 0xE033, size: 0x8, addend: 0x0, symName: __ZNSt3__117__compressed_pairIPNS_4listIiNS_9allocatorIiEEEENS2_IS4_EEE5firstB8ne180100Ev, symObjAddr: 0x3C74, symBinAddr: 0x1000087B8, symSize: 0x24 }
  - { offset: 0xE059, size: 0x8, addend: 0x0, symName: __ZNSt3__122__compressed_pair_elemIPNS_4listIiNS_9allocatorIiEEEELi0ELb0EE5__getB8ne180100Ev, symObjAddr: 0x3C98, symBinAddr: 0x1000087DC, symSize: 0x14 }
  - { offset: 0xE09A, size: 0x8, addend: 0x0, symName: __ZNSt3__16vectorINS_4listIiNS_9allocatorIiEEEENS2_IS4_EEE21_ConstructTransactionC1B8ne180100ERS6_m, symObjAddr: 0x3CAC, symBinAddr: 0x1000087F0, symSize: 0x3C }
  - { offset: 0xE0E2, size: 0x8, addend: 0x0, symName: __ZNSt3__116allocator_traitsINS_9allocatorINS_4listIiNS1_IiEEEEEEE9constructB8ne180100IS4_JEvEEvRS5_PT_DpOT0_, symObjAddr: 0x3CE8, symBinAddr: 0x10000882C, symSize: 0x2C }
  - { offset: 0xE124, size: 0x8, addend: 0x0, symName: __ZNSt3__16vectorINS_4listIiNS_9allocatorIiEEEENS2_IS4_EEE21_ConstructTransactionD1B8ne180100Ev, symObjAddr: 0x3D28, symBinAddr: 0x10000886C, symSize: 0x2C }
  - { offset: 0xE14E, size: 0x8, addend: 0x0, symName: __ZNSt3__16vectorINS_4listIiNS_9allocatorIiEEEENS2_IS4_EEE21_ConstructTransactionC2B8ne180100ERS6_m, symObjAddr: 0x3D54, symBinAddr: 0x100008898, symSize: 0x4C }
  - { offset: 0xE196, size: 0x8, addend: 0x0, symName: __ZNSt3__19allocatorINS_4listIiNS0_IiEEEEE9constructB8ne180100IS3_JEEEvPT_DpOT0_, symObjAddr: 0x3DA0, symBinAddr: 0x1000088E4, symSize: 0x28 }
  - { offset: 0xE1D8, size: 0x8, addend: 0x0, symName: __ZNSt3__14listIiNS_9allocatorIiEEEC1B8ne180100Ev, symObjAddr: 0x3DC8, symBinAddr: 0x10000890C, symSize: 0x2C }
  - { offset: 0xE202, size: 0x8, addend: 0x0, symName: __ZNSt3__14listIiNS_9allocatorIiEEEC2B8ne180100Ev, symObjAddr: 0x3DF4, symBinAddr: 0x100008938, symSize: 0x2C }
  - { offset: 0xE22C, size: 0x8, addend: 0x0, symName: __ZNSt3__110__list_impIiNS_9allocatorIiEEEC2Ev, symObjAddr: 0x3E20, symBinAddr: 0x100008964, symSize: 0x50 }
  - { offset: 0xE258, size: 0x8, addend: 0x0, symName: __ZNSt3__116__list_node_baseIiPvEC1B8ne180100Ev, symObjAddr: 0x3E70, symBinAddr: 0x1000089B4, symSize: 0x2C }
  - { offset: 0xE288, size: 0x8, addend: 0x0, symName: __ZNSt3__117__compressed_pairImNS_9allocatorINS_11__list_nodeIiPvEEEEEC1B8ne180100IiNS_18__default_init_tagEEEOT_OT0_, symObjAddr: 0x3E9C, symBinAddr: 0x1000089E0, symSize: 0x3C }
  - { offset: 0xE2E0, size: 0x8, addend: 0x0, symName: __ZNSt3__116__list_node_baseIiPvEC2B8ne180100Ev, symObjAddr: 0x3ED8, symBinAddr: 0x100008A1C, symSize: 0x4C }
  - { offset: 0xE30A, size: 0x8, addend: 0x0, symName: __ZNSt3__126__list_node_pointer_traitsIiPvE26__unsafe_link_pointer_castB8ne180100EPNS_16__list_node_baseIiS1_EE, symObjAddr: 0x3F24, symBinAddr: 0x100008A68, symSize: 0x14 }
  - { offset: 0xE32E, size: 0x8, addend: 0x0, symName: __ZNSt3__116__list_node_baseIiPvE6__selfB8ne180100Ev, symObjAddr: 0x3F38, symBinAddr: 0x100008A7C, symSize: 0x24 }
  - { offset: 0xE35A, size: 0x8, addend: 0x0, symName: __ZNSt3__114pointer_traitsIPNS_16__list_node_baseIiPvEEE10pointer_toB8ne180100ERS3_, symObjAddr: 0x3F5C, symBinAddr: 0x100008AA0, symSize: 0x14 }
  - { offset: 0xE37D, size: 0x8, addend: 0x0, symName: __ZNSt3__117__compressed_pairImNS_9allocatorINS_11__list_nodeIiPvEEEEEC2B8ne180100IiNS_18__default_init_tagEEEOT_OT0_, symObjAddr: 0x3F70, symBinAddr: 0x100008AB4, symSize: 0x40 }
  - { offset: 0xE3D5, size: 0x8, addend: 0x0, symName: __ZNSt3__122__compressed_pair_elemImLi0ELb0EEC2B8ne180100IivEEOT_, symObjAddr: 0x3FB0, symBinAddr: 0x100008AF4, symSize: 0x24 }
  - { offset: 0xE417, size: 0x8, addend: 0x0, symName: __ZNSt3__122__compressed_pair_elemINS_9allocatorINS_11__list_nodeIiPvEEEELi1ELb1EEC2B8ne180100ENS_18__default_init_tagE, symObjAddr: 0x3FD4, symBinAddr: 0x100008B18, symSize: 0x2C }
  - { offset: 0xE44C, size: 0x8, addend: 0x0, symName: __ZNSt3__19allocatorINS_11__list_nodeIiPvEEEC2B8ne180100Ev, symObjAddr: 0x4000, symBinAddr: 0x100008B44, symSize: 0x2C }
  - { offset: 0xE476, size: 0x8, addend: 0x0, symName: __ZNSt3__116__non_trivial_ifILb1ENS_9allocatorINS_11__list_nodeIiPvEEEEEC2B8ne180100Ev, symObjAddr: 0x402C, symBinAddr: 0x100008B70, symSize: 0x14 }
  - { offset: 0xE4A0, size: 0x8, addend: 0x0, symName: __ZNSt3__16vectorINS_4listIiNS_9allocatorIiEEEENS2_IS4_EEE21_ConstructTransactionD2B8ne180100Ev, symObjAddr: 0x4040, symBinAddr: 0x100008B84, symSize: 0x20 }
  - { offset: 0xE4CA, size: 0x8, addend: 0x0, symName: __ZNSt3__128__exception_guard_exceptionsINS_6vectorINS_4listIiNS_9allocatorIiEEEENS3_IS5_EEE16__destroy_vectorEED2B8ne180100Ev, symObjAddr: 0x4060, symBinAddr: 0x100008BA4, symSize: 0x50 }
  - { offset: 0xE4F4, size: 0x8, addend: 0x0, symName: __ZNSt3__16vectorINS_4listIiNS_9allocatorIiEEEENS2_IS4_EEE16__destroy_vectorclB8ne180100Ev, symObjAddr: 0x40B0, symBinAddr: 0x100008BF4, symSize: 0x88 }
  - { offset: 0xE51A, size: 0x8, addend: 0x0, symName: __ZNSt3__16vectorINS_4listIiNS_9allocatorIiEEEENS2_IS4_EEE7__clearB8ne180100Ev, symObjAddr: 0x4138, symBinAddr: 0x100008C7C, symSize: 0x28 }
  - { offset: 0xE540, size: 0x8, addend: 0x0, symName: __ZNKSt3__16vectorINS_4listIiNS_9allocatorIiEEEENS2_IS4_EEE17__annotate_deleteB8ne180100Ev, symObjAddr: 0x4160, symBinAddr: 0x100008CA4, symSize: 0x10 }
  - { offset: 0xE566, size: 0x8, addend: 0x0, symName: __ZNSt3__116allocator_traitsINS_9allocatorINS_4listIiNS1_IiEEEEEEE10deallocateB8ne180100ERS5_PS4_m, symObjAddr: 0x4170, symBinAddr: 0x100008CB4, symSize: 0x34 }
  - { offset: 0xE5A8, size: 0x8, addend: 0x0, symName: __ZNKSt3__16vectorINS_4listIiNS_9allocatorIiEEEENS2_IS4_EEE8capacityB8ne180100Ev, symObjAddr: 0x41A4, symBinAddr: 0x100008CE8, symSize: 0x40 }
  - { offset: 0xE5CE, size: 0x8, addend: 0x0, symName: __ZNSt3__16vectorINS_4listIiNS_9allocatorIiEEEENS2_IS4_EEE22__base_destruct_at_endB8ne180100EPS4_, symObjAddr: 0x41E4, symBinAddr: 0x100008D28, symSize: 0x88 }
  - { offset: 0xE612, size: 0x8, addend: 0x0, symName: __ZNSt3__116allocator_traitsINS_9allocatorINS_4listIiNS1_IiEEEEEEE7destroyB8ne180100IS4_vEEvRS5_PT_, symObjAddr: 0x426C, symBinAddr: 0x100008DB0, symSize: 0x2C }
  - { offset: 0xE64F, size: 0x8, addend: 0x0, symName: __ZNSt3__19allocatorINS_4listIiNS0_IiEEEEE7destroyB8ne180100EPS3_, symObjAddr: 0x4298, symBinAddr: 0x100008DDC, symSize: 0x28 }
  - { offset: 0xE683, size: 0x8, addend: 0x0, symName: __ZNSt3__14listIiNS_9allocatorIiEEED1Ev, symObjAddr: 0x42C0, symBinAddr: 0x100008E04, symSize: 0x2C }
  - { offset: 0xE6B0, size: 0x8, addend: 0x0, symName: __ZNSt3__14listIiNS_9allocatorIiEEED2Ev, symObjAddr: 0x42EC, symBinAddr: 0x100008E30, symSize: 0x2C }
  - { offset: 0xE6DD, size: 0x8, addend: 0x0, symName: __ZNSt3__110__list_impIiNS_9allocatorIiEEED2Ev, symObjAddr: 0x4318, symBinAddr: 0x100008E5C, symSize: 0x2C }
  - { offset: 0xE709, size: 0x8, addend: 0x0, symName: __ZNSt3__110__list_impIiNS_9allocatorIiEEE5clearEv, symObjAddr: 0x4344, symBinAddr: 0x100008E88, symSize: 0xB8 }
  - { offset: 0xE76A, size: 0x8, addend: 0x0, symName: __ZNKSt3__110__list_impIiNS_9allocatorIiEEE5emptyB8ne180100Ev, symObjAddr: 0x43FC, symBinAddr: 0x100008F40, symSize: 0x30 }
  - { offset: 0xE790, size: 0x8, addend: 0x0, symName: __ZNKSt3__110__list_impIiNS_9allocatorIiEEE13__end_as_linkB8ne180100Ev, symObjAddr: 0x442C, symBinAddr: 0x100008F70, symSize: 0x28 }
  - { offset: 0xE7B6, size: 0x8, addend: 0x0, symName: __ZNSt3__110__list_impIiNS_9allocatorIiEEE14__unlink_nodesEPNS_16__list_node_baseIiPvEES7_, symObjAddr: 0x4454, symBinAddr: 0x100008F98, symSize: 0x3C }
  - { offset: 0xE7EB, size: 0x8, addend: 0x0, symName: __ZNSt3__110__list_impIiNS_9allocatorIiEEE4__szB8ne180100Ev, symObjAddr: 0x4490, symBinAddr: 0x100008FD4, symSize: 0x28 }
  - { offset: 0xE811, size: 0x8, addend: 0x0, symName: __ZNSt3__116__list_node_baseIiPvE9__as_nodeB8ne180100Ev, symObjAddr: 0x44B8, symBinAddr: 0x100008FFC, symSize: 0x24 }
  - { offset: 0xE83D, size: 0x8, addend: 0x0, symName: __ZNSt3__110__list_impIiNS_9allocatorIiEEE13__delete_nodeB8ne180100IJEEEvPNS_11__list_nodeIiPvEE, symObjAddr: 0x44DC, symBinAddr: 0x100009020, symSize: 0x60 }
  - { offset: 0xE886, size: 0x8, addend: 0x0, symName: __ZNKSt3__110__list_impIiNS_9allocatorIiEEE4__szB8ne180100Ev, symObjAddr: 0x453C, symBinAddr: 0x100009080, symSize: 0x28 }
  - { offset: 0xE8AC, size: 0x8, addend: 0x0, symName: __ZNKSt3__117__compressed_pairImNS_9allocatorINS_11__list_nodeIiPvEEEEE5firstB8ne180100Ev, symObjAddr: 0x4564, symBinAddr: 0x1000090A8, symSize: 0x24 }
  - { offset: 0xE8D2, size: 0x8, addend: 0x0, symName: __ZNKSt3__122__compressed_pair_elemImLi0ELb0EE5__getB8ne180100Ev, symObjAddr: 0x4588, symBinAddr: 0x1000090CC, symSize: 0x14 }
  - { offset: 0xE8F8, size: 0x8, addend: 0x0, symName: __ZNSt3__117__compressed_pairImNS_9allocatorINS_11__list_nodeIiPvEEEEE5firstB8ne180100Ev, symObjAddr: 0x459C, symBinAddr: 0x1000090E0, symSize: 0x24 }
  - { offset: 0xE91E, size: 0x8, addend: 0x0, symName: __ZNSt3__122__compressed_pair_elemImLi0ELb0EE5__getB8ne180100Ev, symObjAddr: 0x45C0, symBinAddr: 0x100009104, symSize: 0x14 }
  - { offset: 0xE944, size: 0x8, addend: 0x0, symName: __ZNSt3__110__list_impIiNS_9allocatorIiEEE12__node_allocB8ne180100Ev, symObjAddr: 0x45D4, symBinAddr: 0x100009118, symSize: 0x28 }
  - { offset: 0xE96A, size: 0x8, addend: 0x0, symName: __ZNSt3__116allocator_traitsINS_9allocatorINS_11__list_nodeIiPvEEEEE7destroyB8ne180100IivvEEvRS5_PT_, symObjAddr: 0x45FC, symBinAddr: 0x100009140, symSize: 0x28 }
  - { offset: 0xE9A4, size: 0x8, addend: 0x0, symName: __ZNSt3__111__list_nodeIiPvE11__get_valueB8ne180100Ev, symObjAddr: 0x4624, symBinAddr: 0x100009168, symSize: 0x18 }
  - { offset: 0xE9CA, size: 0x8, addend: 0x0, symName: __ZNSt3__116allocator_traitsINS_9allocatorINS_11__list_nodeIiPvEEEEE10deallocateB8ne180100ERS5_PS4_m, symObjAddr: 0x4660, symBinAddr: 0x1000091A4, symSize: 0x34 }
  - { offset: 0xEA0C, size: 0x8, addend: 0x0, symName: __ZNSt3__117__compressed_pairImNS_9allocatorINS_11__list_nodeIiPvEEEEE6secondB8ne180100Ev, symObjAddr: 0x4694, symBinAddr: 0x1000091D8, symSize: 0x24 }
  - { offset: 0xEA32, size: 0x8, addend: 0x0, symName: __ZNSt3__122__compressed_pair_elemINS_9allocatorINS_11__list_nodeIiPvEEEELi1ELb1EE5__getB8ne180100Ev, symObjAddr: 0x46B8, symBinAddr: 0x1000091FC, symSize: 0x14 }
  - { offset: 0xEA58, size: 0x8, addend: 0x0, symName: __ZNSt3__111__list_nodeIiPvED1B8ne180100Ev, symObjAddr: 0x46DC, symBinAddr: 0x100009220, symSize: 0x2C }
  - { offset: 0xEA82, size: 0x8, addend: 0x0, symName: __ZNSt3__111__list_nodeIiPvED2B8ne180100Ev, symObjAddr: 0x4708, symBinAddr: 0x10000924C, symSize: 0x14 }
  - { offset: 0xEAAC, size: 0x8, addend: 0x0, symName: __ZNSt3__19allocatorINS_11__list_nodeIiPvEEE10deallocateB8ne180100EPS3_m, symObjAddr: 0x471C, symBinAddr: 0x100009260, symSize: 0x44 }
  - { offset: 0xEAEE, size: 0x8, addend: 0x0, symName: __ZNSt3__19allocatorINS_4listIiNS0_IiEEEEE10deallocateB8ne180100EPS3_m, symObjAddr: 0x4760, symBinAddr: 0x1000092A4, symSize: 0x44 }
  - { offset: 0xEB30, size: 0x8, addend: 0x0, symName: __ZNKSt3__16vectorINS_4listIiNS_9allocatorIiEEEENS2_IS4_EEE9__end_capB8ne180100Ev, symObjAddr: 0x47A4, symBinAddr: 0x1000092E8, symSize: 0x28 }
  - { offset: 0xEB56, size: 0x8, addend: 0x0, symName: __ZNKSt3__117__compressed_pairIPNS_4listIiNS_9allocatorIiEEEENS2_IS4_EEE5firstB8ne180100Ev, symObjAddr: 0x47CC, symBinAddr: 0x100009310, symSize: 0x24 }
  - { offset: 0xEB7C, size: 0x8, addend: 0x0, symName: __ZNKSt3__122__compressed_pair_elemIPNS_4listIiNS_9allocatorIiEEEELi0ELb0EE5__getB8ne180100Ev, symObjAddr: 0x47F0, symBinAddr: 0x100009334, symSize: 0x14 }
  - { offset: 0xEBA2, size: 0x8, addend: 0x0, symName: __ZNKSt3__16vectorINS_4listIiNS_9allocatorIiEEEENS2_IS4_EEE4sizeB8ne180100Ev, symObjAddr: 0x4804, symBinAddr: 0x100009348, symSize: 0x28 }
  - { offset: 0xEBC8, size: 0x8, addend: 0x0, symName: __ZNSt3__16vectorINS_4listIiNS_9allocatorIiEEEENS2_IS4_EEEixB8ne180100Em, symObjAddr: 0x482C, symBinAddr: 0x100009370, symSize: 0x2C }
  - { offset: 0xEBFF, size: 0x8, addend: 0x0, symName: __ZNSt3__14listIiNS_9allocatorIiEEE5beginB8ne180100Ev, symObjAddr: 0x4858, symBinAddr: 0x10000939C, symSize: 0x2C }
  - { offset: 0xEC25, size: 0x8, addend: 0x0, symName: __ZNSt3__14listIiNS_9allocatorIiEEE3endB8ne180100Ev, symObjAddr: 0x4884, symBinAddr: 0x1000093C8, symSize: 0x2C }
  - { offset: 0xEC4B, size: 0x8, addend: 0x0, symName: __ZNKSt3__115__list_iteratorIiPvEdeB8ne180100Ev, symObjAddr: 0x48E0, symBinAddr: 0x100009424, symSize: 0x2C }
  - { offset: 0xEC71, size: 0x8, addend: 0x0, symName: __ZNSt3__115__list_iteratorIiPvEppB8ne180100Ev, symObjAddr: 0x490C, symBinAddr: 0x100009450, symSize: 0x20 }
  - { offset: 0xEC97, size: 0x8, addend: 0x0, symName: __ZNSt3__14listIiNS_9allocatorIiEEE10push_frontERKi, symObjAddr: 0x492C, symBinAddr: 0x100009470, symSize: 0x70 }
  - { offset: 0xECEC, size: 0x8, addend: 0x0, symName: __ZNSt3__110__list_impIiNS_9allocatorIiEEE5beginB8ne180100Ev, symObjAddr: 0x499C, symBinAddr: 0x1000094E0, symSize: 0x30 }
  - { offset: 0xED12, size: 0x8, addend: 0x0, symName: __ZNSt3__115__list_iteratorIiPvEC1B8ne180100EPNS_16__list_node_baseIiS1_EE, symObjAddr: 0x49CC, symBinAddr: 0x100009510, symSize: 0x34 }
  - { offset: 0xED4B, size: 0x8, addend: 0x0, symName: __ZNSt3__115__list_iteratorIiPvEC2B8ne180100EPNS_16__list_node_baseIiS1_EE, symObjAddr: 0x4A00, symBinAddr: 0x100009544, symSize: 0x20 }
  - { offset: 0xED84, size: 0x8, addend: 0x0, symName: __ZNSt3__110__list_impIiNS_9allocatorIiEEE3endB8ne180100Ev, symObjAddr: 0x4A20, symBinAddr: 0x100009564, symSize: 0x34 }
  - { offset: 0xEDAA, size: 0x8, addend: 0x0, symName: __ZNSt3__110__list_impIiNS_9allocatorIiEEE13__create_nodeB8ne180100IJRKiEEEPNS_11__list_nodeIiPvEEPNS_16__list_node_baseIiS8_EESD_DpOT_, symObjAddr: 0x4A80, symBinAddr: 0x1000095C4, symSize: 0xD4 }
  - { offset: 0xEE26, size: 0x8, addend: 0x0, symName: __ZNSt3__111__list_nodeIiPvE9__as_linkB8ne180100Ev, symObjAddr: 0x4B54, symBinAddr: 0x100009698, symSize: 0x24 }
  - { offset: 0xEE4C, size: 0x8, addend: 0x0, symName: __ZNSt3__14listIiNS_9allocatorIiEEE21__link_nodes_at_frontEPNS_16__list_node_baseIiPvEES7_, symObjAddr: 0x4B78, symBinAddr: 0x1000096BC, symSize: 0x60 }
  - { offset: 0xEEB3, size: 0x8, addend: 0x0, symName: __ZNSt3__118__allocation_guardINS_9allocatorINS_11__list_nodeIiPvEEEEEC1B8ne180100IS5_EET_m, symObjAddr: 0x4BD8, symBinAddr: 0x10000971C, symSize: 0x34 }
  - { offset: 0xEF02, size: 0x8, addend: 0x0, symName: __ZNKSt3__118__allocation_guardINS_9allocatorINS_11__list_nodeIiPvEEEEE5__getB8ne180100Ev, symObjAddr: 0x4C58, symBinAddr: 0x10000979C, symSize: 0x18 }
  - { offset: 0xEF28, size: 0x8, addend: 0x0, symName: __ZNSt3__116allocator_traitsINS_9allocatorINS_11__list_nodeIiPvEEEEE9constructB8ne180100IiJRKiEvEEvRS5_PT_DpOT0_, symObjAddr: 0x4C70, symBinAddr: 0x1000097B4, symSize: 0x34 }
  - { offset: 0xEF7F, size: 0x8, addend: 0x0, symName: __ZNSt3__118__allocation_guardINS_9allocatorINS_11__list_nodeIiPvEEEEE13__release_ptrB8ne180100Ev, symObjAddr: 0x4CA4, symBinAddr: 0x1000097E8, symSize: 0x24 }
  - { offset: 0xEFB3, size: 0x8, addend: 0x0, symName: __ZNSt3__118__allocation_guardINS_9allocatorINS_11__list_nodeIiPvEEEEED1B8ne180100Ev, symObjAddr: 0x4CC8, symBinAddr: 0x10000980C, symSize: 0x2C }
  - { offset: 0xEFDD, size: 0x8, addend: 0x0, symName: __ZNSt3__118__allocation_guardINS_9allocatorINS_11__list_nodeIiPvEEEEEC2B8ne180100IS5_EET_m, symObjAddr: 0x4CF4, symBinAddr: 0x100009838, symSize: 0x44 }
  - { offset: 0xF02C, size: 0x8, addend: 0x0, symName: __ZNSt3__116allocator_traitsINS_9allocatorINS_11__list_nodeIiPvEEEEE8allocateB8ne180100ERS5_m, symObjAddr: 0x4D38, symBinAddr: 0x10000987C, symSize: 0x2C }
  - { offset: 0xF05F, size: 0x8, addend: 0x0, symName: __ZNSt3__19allocatorINS_11__list_nodeIiPvEEE8allocateB8ne180100Em, symObjAddr: 0x4D64, symBinAddr: 0x1000098A8, symSize: 0x58 }
  - { offset: 0xF09E, size: 0x8, addend: 0x0, symName: __ZNSt3__116allocator_traitsINS_9allocatorINS_11__list_nodeIiPvEEEEE8max_sizeB8ne180100IS5_vEEmRKS5_, symObjAddr: 0x4DBC, symBinAddr: 0x100009900, symSize: 0x24 }
  - { offset: 0xF0CC, size: 0x8, addend: 0x0, symName: __ZNKSt3__19allocatorINS_11__list_nodeIiPvEEE8max_sizeB8ne180100Ev, symObjAddr: 0x4DE0, symBinAddr: 0x100009924, symSize: 0x18 }
  - { offset: 0xF0F2, size: 0x8, addend: 0x0, symName: __ZNSt3__111__list_nodeIiPvEC1B8ne180100EPNS_16__list_node_baseIiS1_EES5_, symObjAddr: 0x4DF8, symBinAddr: 0x10000993C, symSize: 0x3C }
  - { offset: 0xF13A, size: 0x8, addend: 0x0, symName: __ZNSt3__111__list_nodeIiPvEC2B8ne180100EPNS_16__list_node_baseIiS1_EES5_, symObjAddr: 0x4E34, symBinAddr: 0x100009978, symSize: 0x3C }
  - { offset: 0xF182, size: 0x8, addend: 0x0, symName: __ZNSt3__116__list_node_baseIiPvEC2B8ne180100EPS2_S3_, symObjAddr: 0x4E70, symBinAddr: 0x1000099B4, symSize: 0x2C }
  - { offset: 0xF1CA, size: 0x8, addend: 0x0, symName: __ZNSt3__19allocatorINS_11__list_nodeIiPvEEE9constructB8ne180100IiJRKiEEEvPT_DpOT0_, symObjAddr: 0x4E9C, symBinAddr: 0x1000099E0, symSize: 0x28 }
  - { offset: 0xF220, size: 0x8, addend: 0x0, symName: __ZNSt3__118__allocation_guardINS_9allocatorINS_11__list_nodeIiPvEEEEED2B8ne180100Ev, symObjAddr: 0x4EC4, symBinAddr: 0x100009A08, symSize: 0x2C }
  - { offset: 0xF24A, size: 0x8, addend: 0x0, symName: __ZNSt3__118__allocation_guardINS_9allocatorINS_11__list_nodeIiPvEEEEE9__destroyB8ne180100Ev, symObjAddr: 0x4EF0, symBinAddr: 0x100009A34, symSize: 0x44 }
  - { offset: 0xF270, size: 0x8, addend: 0x0, symName: __ZNKSt3__16vectorINS_4listIiNS_9allocatorIiEEEENS2_IS4_EEEixB8ne180100Em, symObjAddr: 0x4F34, symBinAddr: 0x100009A78, symSize: 0x2C }
  - { offset: 0xF2A7, size: 0x8, addend: 0x0, symName: __ZNKSt3__14listIiNS_9allocatorIiEEE5beginB8ne180100Ev, symObjAddr: 0x4F60, symBinAddr: 0x100009AA4, symSize: 0x2C }
  - { offset: 0xF2CD, size: 0x8, addend: 0x0, symName: __ZNKSt3__14listIiNS_9allocatorIiEEE3endB8ne180100Ev, symObjAddr: 0x4F8C, symBinAddr: 0x100009AD0, symSize: 0x2C }
  - { offset: 0xF2F3, size: 0x8, addend: 0x0, symName: __ZNKSt3__121__list_const_iteratorIiPvEdeB8ne180100Ev, symObjAddr: 0x4FE8, symBinAddr: 0x100009B2C, symSize: 0x2C }
  - { offset: 0xF319, size: 0x8, addend: 0x0, symName: __ZNSt3__121__list_const_iteratorIiPvEppB8ne180100Ev, symObjAddr: 0x5014, symBinAddr: 0x100009B58, symSize: 0x20 }
  - { offset: 0xF33F, size: 0x8, addend: 0x0, symName: __ZNKSt3__110__list_impIiNS_9allocatorIiEEE5beginB8ne180100Ev, symObjAddr: 0x5034, symBinAddr: 0x100009B78, symSize: 0x30 }
  - { offset: 0xF365, size: 0x8, addend: 0x0, symName: __ZNSt3__121__list_const_iteratorIiPvEC1B8ne180100EPNS_16__list_node_baseIiS1_EE, symObjAddr: 0x5064, symBinAddr: 0x100009BA8, symSize: 0x34 }
  - { offset: 0xF39E, size: 0x8, addend: 0x0, symName: __ZNSt3__121__list_const_iteratorIiPvEC2B8ne180100EPNS_16__list_node_baseIiS1_EE, symObjAddr: 0x5098, symBinAddr: 0x100009BDC, symSize: 0x20 }
  - { offset: 0xF3D7, size: 0x8, addend: 0x0, symName: __ZNKSt3__110__list_impIiNS_9allocatorIiEEE3endB8ne180100Ev, symObjAddr: 0x50B8, symBinAddr: 0x100009BFC, symSize: 0x34 }
  - { offset: 0xF3FD, size: 0x8, addend: 0x0, symName: __ZN16ChainedHashTableD2Ev, symObjAddr: 0x5118, symBinAddr: 0x100009C5C, symSize: 0x2C }
  - { offset: 0xF42A, size: 0x8, addend: 0x0, symName: __ZNSt3__16vectorINS_4listIiNS_9allocatorIiEEEENS2_IS4_EEED1B8ne180100Ev, symObjAddr: 0x5144, symBinAddr: 0x100009C88, symSize: 0x2C }
  - { offset: 0xF454, size: 0x8, addend: 0x0, symName: __ZNSt3__16vectorINS_4listIiNS_9allocatorIiEEEENS2_IS4_EEED2B8ne180100Ev, symObjAddr: 0x5170, symBinAddr: 0x100009CB4, symSize: 0x40 }
  - { offset: 0xF47E, size: 0x8, addend: 0x0, symName: __ZNKSt3__112basic_stringIcNS_11char_traitsIcEENS_9allocatorIcEEE9__is_longB8ne180100Ev, symObjAddr: 0x51B0, symBinAddr: 0x100009CF4, symSize: 0x34 }
  - { offset: 0xF4A4, size: 0x8, addend: 0x0, symName: __ZNKSt3__112basic_stringIcNS_11char_traitsIcEENS_9allocatorIcEEE15__get_long_sizeB8ne180100Ev, symObjAddr: 0x51E4, symBinAddr: 0x100009D28, symSize: 0x28 }
  - { offset: 0xF4CA, size: 0x8, addend: 0x0, symName: __ZNKSt3__112basic_stringIcNS_11char_traitsIcEENS_9allocatorIcEEE16__get_short_sizeB8ne180100Ev, symObjAddr: 0x520C, symBinAddr: 0x100009D50, symSize: 0x34 }
  - { offset: 0xF4F0, size: 0x8, addend: 0x0, symName: __ZNKSt3__117__compressed_pairINS_12basic_stringIcNS_11char_traitsIcEENS_9allocatorIcEEE5__repES5_E5firstB8ne180100Ev, symObjAddr: 0x5240, symBinAddr: 0x100009D84, symSize: 0x24 }
  - { offset: 0xF516, size: 0x8, addend: 0x0, symName: __ZNKSt3__122__compressed_pair_elemINS_12basic_stringIcNS_11char_traitsIcEENS_9allocatorIcEEE5__repELi0ELb0EE5__getB8ne180100Ev, symObjAddr: 0x5264, symBinAddr: 0x100009DA8, symSize: 0x14 }
  - { offset: 0xF53C, size: 0x8, addend: 0x0, symName: __ZNSt3__19allocatorIcEC1B8ne180100Ev, symObjAddr: 0x5278, symBinAddr: 0x100009DBC, symSize: 0x2C }
  - { offset: 0xF566, size: 0x8, addend: 0x0, symName: __ZNSt3__19allocatorIcEC2B8ne180100Ev, symObjAddr: 0x52A4, symBinAddr: 0x100009DE8, symSize: 0x2C }
  - { offset: 0xF590, size: 0x8, addend: 0x0, symName: __ZNSt3__116__non_trivial_ifILb1ENS_9allocatorIcEEEC2B8ne180100Ev, symObjAddr: 0x52D0, symBinAddr: 0x100009E14, symSize: 0x14 }
  - { offset: 0xF5BA, size: 0x8, addend: 0x0, symName: __ZNSt3__123mersenne_twister_engineIjLm32ELm624ELm397ELm31ELj2567483615ELm11ELj4294967295ELm7ELj2636928640ELm15ELj4022730752ELm18ELj1812433253EEC2B8ne180100Ej, symObjAddr: 0x52E4, symBinAddr: 0x100009E28, symSize: 0x34 }
  - { offset: 0xF5F2, size: 0x8, addend: 0x0, symName: __ZNSt3__123mersenne_twister_engineIjLm32ELm624ELm397ELm31ELj2567483615ELm11ELj4294967295ELm7ELj2636928640ELm15ELj4022730752ELm18ELj1812433253EE4seedEj, symObjAddr: 0x5318, symBinAddr: 0x100009E5C, symSize: 0xC4 }
  - { offset: 0xF645, size: 0x8, addend: 0x0, symName: __ZNSt3__123mersenne_twister_engineIjLm32ELm624ELm397ELm31ELj2567483615ELm11ELj4294967295ELm7ELj2636928640ELm15ELj4022730752ELm18ELj1812433253EE8__rshiftB8ne180100ILm30ETnNS_9enable_ifIXltT_L_ZNS1_3_DtEEEiE4typeELi0EEEjj, symObjAddr: 0x53DC, symBinAddr: 0x100009F20, symSize: 0x18 }
  - { offset: 0xF679, size: 0x8, addend: 0x0, symName: __ZNSt3__124uniform_int_distributionIiEC2B8ne180100Eii, symObjAddr: 0x53F4, symBinAddr: 0x100009F38, symSize: 0x3C }
  - { offset: 0xF6BF, size: 0x8, addend: 0x0, symName: __ZNSt3__124uniform_int_distributionIiE10param_typeC1B8ne180100Eii, symObjAddr: 0x5430, symBinAddr: 0x100009F74, symSize: 0x3C }
  - { offset: 0xF705, size: 0x8, addend: 0x0, symName: __ZNSt3__124uniform_int_distributionIiE10param_typeC2B8ne180100Eii, symObjAddr: 0x546C, symBinAddr: 0x100009FB0, symSize: 0x2C }
  - { offset: 0xF74B, size: 0x8, addend: 0x0, symName: __ZNSt3__123mersenne_twister_engineIjLm32ELm624ELm397ELm31ELj2567483615ELm11ELj4294967295ELm7ELj2636928640ELm15ELj4022730752ELm18ELj1812433253EEclEv, symObjAddr: 0x5498, symBinAddr: 0x100009FDC, symSize: 0x14C }
  - { offset: 0xF7BE, size: 0x8, addend: 0x0, symName: __ZNSt3__123mersenne_twister_engineIjLm32ELm624ELm397ELm31ELj2567483615ELm11ELj4294967295ELm7ELj2636928640ELm15ELj4022730752ELm18ELj1812433253EE8__rshiftB8ne180100ILm1ETnNS_9enable_ifIXltT_L_ZNS1_3_DtEEEiE4typeELi0EEEjj, symObjAddr: 0x55E4, symBinAddr: 0x10000A128, symSize: 0x18 }
  - { offset: 0xF7F2, size: 0x8, addend: 0x0, symName: __ZNSt3__123mersenne_twister_engineIjLm32ELm624ELm397ELm31ELj2567483615ELm11ELj4294967295ELm7ELj2636928640ELm15ELj4022730752ELm18ELj1812433253EE8__rshiftB8ne180100ILm11ETnNS_9enable_ifIXltT_L_ZNS1_3_DtEEEiE4typeELi0EEEjj, symObjAddr: 0x55FC, symBinAddr: 0x10000A140, symSize: 0x18 }
  - { offset: 0xF826, size: 0x8, addend: 0x0, symName: __ZNSt3__123mersenne_twister_engineIjLm32ELm624ELm397ELm31ELj2567483615ELm11ELj4294967295ELm7ELj2636928640ELm15ELj4022730752ELm18ELj1812433253EE8__lshiftB8ne180100ILm7ETnNS_9enable_ifIXltT_Lm32EEiE4typeELi0EEEjj, symObjAddr: 0x5614, symBinAddr: 0x10000A158, symSize: 0x1C }
  - { offset: 0xF85A, size: 0x8, addend: 0x0, symName: __ZNSt3__123mersenne_twister_engineIjLm32ELm624ELm397ELm31ELj2567483615ELm11ELj4294967295ELm7ELj2636928640ELm15ELj4022730752ELm18ELj1812433253EE8__lshiftB8ne180100ILm15ETnNS_9enable_ifIXltT_Lm32EEiE4typeELi0EEEjj, symObjAddr: 0x5630, symBinAddr: 0x10000A174, symSize: 0x1C }
  - { offset: 0xF88E, size: 0x8, addend: 0x0, symName: __ZNSt3__123mersenne_twister_engineIjLm32ELm624ELm397ELm31ELj2567483615ELm11ELj4294967295ELm7ELj2636928640ELm15ELj4022730752ELm18ELj1812433253EE8__rshiftB8ne180100ILm18ETnNS_9enable_ifIXltT_L_ZNS1_3_DtEEEiE4typeELi0EEEjj, symObjAddr: 0x564C, symBinAddr: 0x10000A190, symSize: 0x18 }
  - { offset: 0xF8C2, size: 0x8, addend: 0x0, symName: __ZNKSt3__124uniform_int_distributionIiE10param_type1bB8ne180100Ev, symObjAddr: 0x57D8, symBinAddr: 0x10000A31C, symSize: 0x18 }
  - { offset: 0xF8E8, size: 0x8, addend: 0x0, symName: __ZNKSt3__124uniform_int_distributionIiE10param_type1aB8ne180100Ev, symObjAddr: 0x57F0, symBinAddr: 0x10000A334, symSize: 0x18 }
  - { offset: 0xF90E, size: 0x8, addend: 0x0, symName: __ZNSt3__125__independent_bits_engineINS_23mersenne_twister_engineIjLm32ELm624ELm397ELm31ELj2567483615ELm11ELj4294967295ELm7ELj2636928640ELm15ELj4022730752ELm18ELj1812433253EEEjEC1ERS2_m, symObjAddr: 0x5808, symBinAddr: 0x10000A34C, symSize: 0x3C }
  - { offset: 0xF954, size: 0x8, addend: 0x0, symName: __ZNSt3__125__independent_bits_engineINS_23mersenne_twister_engineIjLm32ELm624ELm397ELm31ELj2567483615ELm11ELj4294967295ELm7ELj2636928640ELm15ELj4022730752ELm18ELj1812433253EEEjEclB8ne180100Ev, symObjAddr: 0x5844, symBinAddr: 0x10000A388, symSize: 0x24 }
  - { offset: 0xF97A, size: 0x8, addend: 0x0, symName: __ZNSt3__114numeric_limitsIjE3maxB8ne180100Ev, symObjAddr: 0x58B4, symBinAddr: 0x10000A3F8, symSize: 0x14 }
  - { offset: 0xF98E, size: 0x8, addend: 0x0, symName: __ZNSt3__125__independent_bits_engineINS_23mersenne_twister_engineIjLm32ELm624ELm397ELm31ELj2567483615ELm11ELj4294967295ELm7ELj2636928640ELm15ELj4022730752ELm18ELj1812433253EEEjEC2ERS2_m, symObjAddr: 0x58C8, symBinAddr: 0x10000A40C, symSize: 0x21C }
  - { offset: 0xF9D4, size: 0x8, addend: 0x0, symName: __ZNSt3__125__independent_bits_engineINS_23mersenne_twister_engineIjLm32ELm624ELm397ELm31ELj2567483615ELm11ELj4294967295ELm7ELj2636928640ELm15ELj4022730752ELm18ELj1812433253EEEjE6__evalENS_17integral_constantIbLb0EEE, symObjAddr: 0x5AE4, symBinAddr: 0x10000A628, symSize: 0x38 }
  - { offset: 0xFA05, size: 0x8, addend: 0x0, symName: __ZNSt3__123__libcpp_numeric_limitsIjLb1EE3maxB8ne180100Ev, symObjAddr: 0x5B34, symBinAddr: 0x10000A678, symSize: 0x8 }
  - { offset: 0xFA19, size: 0x8, addend: 0x0, symName: __ZNSt3__111char_traitsIcE6lengthB8ne180100EPKc, symObjAddr: 0x5D24, symBinAddr: 0x10000A868, symSize: 0x34 }
  - { offset: 0xFA5D, size: 0x8, addend: 0x0, symName: __ZNKSt3__113basic_ostreamIcNS_11char_traitsIcEEE6sentrycvbB8ne180100Ev, symObjAddr: 0x5D58, symBinAddr: 0x10000A89C, symSize: 0x1C }
  - { offset: 0xFA83, size: 0x8, addend: 0x0, symName: __ZNSt3__119ostreambuf_iteratorIcNS_11char_traitsIcEEEC1B8ne180100ERNS_13basic_ostreamIcS2_EE, symObjAddr: 0x5F88, symBinAddr: 0x10000AACC, symSize: 0x34 }
  - { offset: 0xFABB, size: 0x8, addend: 0x0, symName: __ZNKSt3__18ios_base5flagsB8ne180100Ev, symObjAddr: 0x5FBC, symBinAddr: 0x10000AB00, symSize: 0x18 }
  - { offset: 0xFAE3, size: 0x8, addend: 0x0, symName: __ZNKSt3__19basic_iosIcNS_11char_traitsIcEEE4fillB8ne180100Ev, symObjAddr: 0x5FD4, symBinAddr: 0x10000AB18, symSize: 0x64 }
  - { offset: 0xFB09, size: 0x8, addend: 0x0, symName: __ZNKSt3__119ostreambuf_iteratorIcNS_11char_traitsIcEEE6failedB8ne180100Ev, symObjAddr: 0x6038, symBinAddr: 0x10000AB7C, symSize: 0x20 }
  - { offset: 0xFB2F, size: 0x8, addend: 0x0, symName: __ZNSt3__19basic_iosIcNS_11char_traitsIcEEE8setstateB8ne180100Ej, symObjAddr: 0x6058, symBinAddr: 0x10000AB9C, symSize: 0x2C }
  - { offset: 0xFB64, size: 0x8, addend: 0x0, symName: __ZNKSt3__18ios_base5widthB8ne180100Ev, symObjAddr: 0x6084, symBinAddr: 0x10000ABC8, symSize: 0x18 }
  - { offset: 0xFB8C, size: 0x8, addend: 0x0, symName: __ZNSt3__115basic_streambufIcNS_11char_traitsIcEEE5sputnB8ne180100EPKcl, symObjAddr: 0x609C, symBinAddr: 0x10000ABE0, symSize: 0x3C }
  - { offset: 0xFBCE, size: 0x8, addend: 0x0, symName: __ZNSt3__112basic_stringIcNS_11char_traitsIcEENS_9allocatorIcEEEC1B8ne180100Emc, symObjAddr: 0x60D8, symBinAddr: 0x10000AC1C, symSize: 0x3C }
  - { offset: 0xFC16, size: 0x8, addend: 0x0, symName: __ZNSt3__112basic_stringIcNS_11char_traitsIcEENS_9allocatorIcEEE4dataB8ne180100Ev, symObjAddr: 0x6114, symBinAddr: 0x10000AC58, symSize: 0x28 }
  - { offset: 0xFC3C, size: 0x8, addend: 0x0, symName: __ZNSt3__18ios_base5widthB8ne180100El, symObjAddr: 0x613C, symBinAddr: 0x10000AC80, symSize: 0x2C }
  - { offset: 0xFC82, size: 0x8, addend: 0x0, symName: __ZNSt3__112basic_stringIcNS_11char_traitsIcEENS_9allocatorIcEEEC2B8ne180100Emc, symObjAddr: 0x6168, symBinAddr: 0x10000ACAC, symSize: 0x4C }
  - { offset: 0xFCCA, size: 0x8, addend: 0x0, symName: __ZNSt3__117__compressed_pairINS_12basic_stringIcNS_11char_traitsIcEENS_9allocatorIcEEE5__repES5_EC1B8ne180100INS_18__default_init_tagESA_EEOT_OT0_, symObjAddr: 0x61B4, symBinAddr: 0x10000ACF8, symSize: 0x3C }
  - { offset: 0xFD22, size: 0x8, addend: 0x0, symName: __ZNSt3__117__compressed_pairINS_12basic_stringIcNS_11char_traitsIcEENS_9allocatorIcEEE5__repES5_EC2B8ne180100INS_18__default_init_tagESA_EEOT_OT0_, symObjAddr: 0x61F0, symBinAddr: 0x10000AD34, symSize: 0x3C }
  - { offset: 0xFD7A, size: 0x8, addend: 0x0, symName: __ZNSt3__122__compressed_pair_elemINS_12basic_stringIcNS_11char_traitsIcEENS_9allocatorIcEEE5__repELi0ELb0EEC2B8ne180100ENS_18__default_init_tagE, symObjAddr: 0x622C, symBinAddr: 0x10000AD70, symSize: 0x14 }
  - { offset: 0xFDAF, size: 0x8, addend: 0x0, symName: __ZNSt3__122__compressed_pair_elemINS_9allocatorIcEELi1ELb1EEC2B8ne180100ENS_18__default_init_tagE, symObjAddr: 0x6240, symBinAddr: 0x10000AD84, symSize: 0x2C }
  - { offset: 0xFDE4, size: 0x8, addend: 0x0, symName: __ZNSt3__112basic_stringIcNS_11char_traitsIcEENS_9allocatorIcEEE13__get_pointerB8ne180100Ev, symObjAddr: 0x6280, symBinAddr: 0x10000ADC4, symSize: 0x54 }
  - { offset: 0xFE0A, size: 0x8, addend: 0x0, symName: __ZNSt3__112basic_stringIcNS_11char_traitsIcEENS_9allocatorIcEEE18__get_long_pointerB8ne180100Ev, symObjAddr: 0x62D4, symBinAddr: 0x10000AE18, symSize: 0x28 }
  - { offset: 0xFE30, size: 0x8, addend: 0x0, symName: __ZNSt3__112basic_stringIcNS_11char_traitsIcEENS_9allocatorIcEEE19__get_short_pointerB8ne180100Ev, symObjAddr: 0x62FC, symBinAddr: 0x10000AE40, symSize: 0x28 }
  - { offset: 0xFE56, size: 0x8, addend: 0x0, symName: __ZNSt3__117__compressed_pairINS_12basic_stringIcNS_11char_traitsIcEENS_9allocatorIcEEE5__repES5_E5firstB8ne180100Ev, symObjAddr: 0x6324, symBinAddr: 0x10000AE68, symSize: 0x24 }
  - { offset: 0xFE7C, size: 0x8, addend: 0x0, symName: __ZNSt3__122__compressed_pair_elemINS_12basic_stringIcNS_11char_traitsIcEENS_9allocatorIcEEE5__repELi0ELb0EE5__getB8ne180100Ev, symObjAddr: 0x6348, symBinAddr: 0x10000AE8C, symSize: 0x14 }
  - { offset: 0xFEA2, size: 0x8, addend: 0x0, symName: __ZNSt3__114pointer_traitsIPcE10pointer_toB8ne180100ERc, symObjAddr: 0x635C, symBinAddr: 0x10000AEA0, symSize: 0x14 }
  - { offset: 0xFEC5, size: 0x8, addend: 0x0, symName: __ZNSt3__119ostreambuf_iteratorIcNS_11char_traitsIcEEEC2B8ne180100ERNS_13basic_ostreamIcS2_EE, symObjAddr: 0x6370, symBinAddr: 0x10000AEB4, symSize: 0x54 }
  - { offset: 0xFEFD, size: 0x8, addend: 0x0, symName: __ZNKSt3__19basic_iosIcNS_11char_traitsIcEEE5rdbufB8ne180100Ev, symObjAddr: 0x63C4, symBinAddr: 0x10000AF08, symSize: 0x24 }
  - { offset: 0xFF23, size: 0x8, addend: 0x0, symName: __ZNKSt3__18ios_base5rdbufB8ne180100Ev, symObjAddr: 0x63E8, symBinAddr: 0x10000AF2C, symSize: 0x18 }
  - { offset: 0xFF49, size: 0x8, addend: 0x0, symName: __ZNSt3__111char_traitsIcE11eq_int_typeB8ne180100Eii, symObjAddr: 0x6400, symBinAddr: 0x10000AF44, symSize: 0x24 }
  - { offset: 0xFF7C, size: 0x8, addend: 0x0, symName: __ZNSt3__111char_traitsIcE3eofB8ne180100Ev, symObjAddr: 0x6424, symBinAddr: 0x10000AF68, symSize: 0x8 }
  - { offset: 0xFF90, size: 0x8, addend: 0x0, symName: __ZNKSt3__19basic_iosIcNS_11char_traitsIcEEE5widenB8ne180100Ec, symObjAddr: 0x642C, symBinAddr: 0x10000AF70, symSize: 0x84 }
  - { offset: 0x10002, size: 0x8, addend: 0x0, symName: __ZNKSt3__15ctypeIcE5widenB8ne180100Ec, symObjAddr: 0x64DC, symBinAddr: 0x10000B020, symSize: 0x38 }
  - { offset: 0x10037, size: 0x8, addend: 0x0, symName: __ZNSt3__18ios_base8setstateB8ne180100Ej, symObjAddr: 0x6514, symBinAddr: 0x10000B058, symSize: 0x34 }
...
