---
triple:          'arm64-apple-darwin'
binary-path:     "/Volumes/星舰雅请假记录/CPP学习（乐子版）/C项目/数据结构与算法/队列/队列"
relocations:
  - { offset: 0x3028, size: 0x8, addend: 0x0, symName: __ZNSt3__124__put_character_sequenceB8ne180100IcNS_11char_traitsIcEEEERNS_13basic_ostreamIT_T0_EES7_PKS4_m, symObjAddr: 0x13BC, symBinAddr: 0x100006768, symSize: 0x1E8 }
  - { offset: 0x3EB4, size: 0x8, addend: 0x0, symName: __ZNSt3__1lsB8ne180100INS_11char_traitsIcEEEERNS_13basic_ostreamIcT_EES6_PKc, symObjAddr: 0xAE8, symBinAddr: 0x100005E94, symSize: 0x48 }
  - { offset: 0x3EFA, size: 0x8, addend: 0x0, symName: __ZNSt3__1eqB8ne180100IcNS_11char_traitsIcEENS_9allocatorIcEEEEbRKNS_12basic_stringIT_T0_T1_EEPKS6_, symObjAddr: 0x11C4, symBinAddr: 0x100006570, symSize: 0xA4 }
  - { offset: 0x3F61, size: 0x8, addend: 0x0, symName: __ZNSt3__1lsB8ne180100IcNS_11char_traitsIcEENS_9allocatorIcEEEERNS_13basic_ostreamIT_T0_EES9_RKNS_12basic_stringIS6_S7_T1_EE, symObjAddr: 0x1268, symBinAddr: 0x100006614, symSize: 0x4C }
  - { offset: 0x3FB9, size: 0x8, addend: 0x0, symName: __ZNSt3__116__pad_and_outputB8ne180100IcNS_11char_traitsIcEEEENS_19ostreambuf_iteratorIT_T0_EES6_PKS4_S8_S8_RNS_8ios_baseES4_, symObjAddr: 0x15F4, symBinAddr: 0x1000069A0, symSize: 0x214 }
  - { offset: 0x4088, size: 0x8, addend: 0x0, symName: __ZNSt3__112__to_addressB8ne180100IcEEPT_S2_, symObjAddr: 0x1B3C, symBinAddr: 0x100006EE8, symSize: 0x14 }
  - { offset: 0x40F0, size: 0x8, addend: 0x0, symName: __ZNSt3__19use_facetB8ne180100INS_5ctypeIcEEEERKT_RKNS_6localeE, symObjAddr: 0x1DEC, symBinAddr: 0x100007198, symSize: 0x2C }
  - { offset: 0x45BD, size: 0x8, addend: 0x0, symName: __ZNSt3__118__constexpr_strlenB8ne180100EPKc, symObjAddr: 0x1E84, symBinAddr: 0x100007230, symSize: 0x24 }
  - { offset: 0x45E9, size: 0x8, addend: 0x0, symName: __ZNSt3__1lsB8ne180100INS_11char_traitsIcEEEERNS_13basic_ostreamIcT_EES6_c, symObjAddr: 0x203C, symBinAddr: 0x1000073E8, symSize: 0x34 }
  - { offset: 0x462F, size: 0x8, addend: 0x0, symName: __ZNSt3__112__to_addressB8ne180100IKcEEPT_S3_, symObjAddr: 0x242C, symBinAddr: 0x1000077D8, symSize: 0x14 }
  - { offset: 0x56F3, size: 0x8, addend: 0x0, symName: _main, symObjAddr: 0x0, symBinAddr: 0x1000053AC, symSize: 0xAE8 }
  - { offset: 0x59FB, size: 0x8, addend: 0x0, symName: __ZN9LinkQueueIiEC1Ev, symObjAddr: 0xB30, symBinAddr: 0x100005EDC, symSize: 0x2C }
  - { offset: 0x5A23, size: 0x8, addend: 0x0, symName: __ZNK9LinkQueueIiE5EmptyEv, symObjAddr: 0xB5C, symBinAddr: 0x100005F08, symSize: 0x24 }
  - { offset: 0x5A47, size: 0x8, addend: 0x0, symName: __ZN9LinkQueueIiE7InQueueERKi, symObjAddr: 0xB80, symBinAddr: 0x100005F2C, symSize: 0x12C }
  - { offset: 0x5A87, size: 0x8, addend: 0x0, symName: __ZNK9LinkQueueIiE6LengthEv, symObjAddr: 0xCAC, symBinAddr: 0x100006058, symSize: 0x18 }
  - { offset: 0x5AAB, size: 0x8, addend: 0x0, symName: __ZNK9LinkQueueIiE8TraverseEPFvRKiE, symObjAddr: 0xCC4, symBinAddr: 0x100006070, symSize: 0x60 }
  - { offset: 0x5AF9, size: 0x8, addend: 0x0, symName: __Z10print_itemIiEvRKT_, symObjAddr: 0xD24, symBinAddr: 0x1000060D0, symSize: 0x38 }
  - { offset: 0x5B2A, size: 0x8, addend: 0x0, symName: __ZNK9LinkQueueIiE7GetHeadERi, symObjAddr: 0xD5C, symBinAddr: 0x100006108, symSize: 0x7C }
  - { offset: 0x5B5C, size: 0x8, addend: 0x0, symName: __ZN9LinkQueueIiE8OutQueueERi, symObjAddr: 0xDD8, symBinAddr: 0x100006184, symSize: 0xE4 }
  - { offset: 0x5D25, size: 0x8, addend: 0x0, symName: __ZN9CircQueueINSt3__112basic_stringIcNS0_11char_traitsIcEENS0_9allocatorIcEEEEEC1Ei, symObjAddr: 0xEBC, symBinAddr: 0x100006268, symSize: 0x34 }
  - { offset: 0x5D5B, size: 0x8, addend: 0x0, symName: __ZNK9CircQueueINSt3__112basic_stringIcNS0_11char_traitsIcEENS0_9allocatorIcEEEEE5EmptyEv, symObjAddr: 0xEF0, symBinAddr: 0x10000629C, symSize: 0x20 }
  - { offset: 0x5D98, size: 0x8, addend: 0x0, symName: __ZNKSt16initializer_listIPKcE5beginB8ne180100Ev, symObjAddr: 0xF10, symBinAddr: 0x1000062BC, symSize: 0x18 }
  - { offset: 0x5DBC, size: 0x8, addend: 0x0, symName: __ZNKSt16initializer_listIPKcE3endB8ne180100Ev, symObjAddr: 0xF28, symBinAddr: 0x1000062D4, symSize: 0x20 }
  - { offset: 0x5DE5, size: 0x8, addend: 0x0, symName: __ZNSt3__112basic_stringIcNS_11char_traitsIcEENS_9allocatorIcEEEC1B8ne180100ILi0EEEPKc, symObjAddr: 0xF48, symBinAddr: 0x1000062F4, symSize: 0x34 }
  - { offset: 0x5E22, size: 0x8, addend: 0x0, symName: __ZN9CircQueueINSt3__112basic_stringIcNS0_11char_traitsIcEENS0_9allocatorIcEEEEE7InQueueERKS6_, symObjAddr: 0xF7C, symBinAddr: 0x100006328, symSize: 0xB8 }
  - { offset: 0x5E54, size: 0x8, addend: 0x0, symName: __ZNK9CircQueueINSt3__112basic_stringIcNS0_11char_traitsIcEENS0_9allocatorIcEEEEE6LengthEv, symObjAddr: 0x1034, symBinAddr: 0x1000063E0, symSize: 0x18 }
  - { offset: 0x5E78, size: 0x8, addend: 0x0, symName: __ZNK9CircQueueINSt3__112basic_stringIcNS0_11char_traitsIcEENS0_9allocatorIcEEEEE8TraverseEPFvRKS6_E, symObjAddr: 0x104C, symBinAddr: 0x1000063F8, symSize: 0x94 }
  - { offset: 0x5EC6, size: 0x8, addend: 0x0, symName: __Z10print_itemINSt3__112basic_stringIcNS0_11char_traitsIcEENS0_9allocatorIcEEEEEvRKT_, symObjAddr: 0x10E0, symBinAddr: 0x10000648C, symSize: 0x34 }
  - { offset: 0x5EF7, size: 0x8, addend: 0x0, symName: __ZNSt3__112basic_stringIcNS_11char_traitsIcEENS_9allocatorIcEEEC1B8ne180100Ev, symObjAddr: 0x1114, symBinAddr: 0x1000064C0, symSize: 0x2C }
  - { offset: 0x5F1F, size: 0x8, addend: 0x0, symName: __ZNK9CircQueueINSt3__112basic_stringIcNS0_11char_traitsIcEENS0_9allocatorIcEEEEE7GetHeadERS6_, symObjAddr: 0x1140, symBinAddr: 0x1000064EC, symSize: 0x84 }
  - { offset: 0x5F51, size: 0x8, addend: 0x0, symName: __ZN9CircQueueINSt3__112basic_stringIcNS0_11char_traitsIcEENS0_9allocatorIcEEEEE8OutQueueERS6_, symObjAddr: 0x12B4, symBinAddr: 0x100006660, symSize: 0xB0 }
  - { offset: 0x5F83, size: 0x8, addend: 0x0, symName: __ZN9CircQueueINSt3__112basic_stringIcNS0_11char_traitsIcEENS0_9allocatorIcEEEEED1Ev, symObjAddr: 0x1364, symBinAddr: 0x100006710, symSize: 0x2C }
  - { offset: 0x5FAB, size: 0x8, addend: 0x0, symName: __ZN9LinkQueueIiED1Ev, symObjAddr: 0x1390, symBinAddr: 0x10000673C, symSize: 0x2C }
  - { offset: 0x5FD3, size: 0x8, addend: 0x0, symName: __ZNSt3__111char_traitsIcE6lengthB8ne180100EPKc, symObjAddr: 0x15A4, symBinAddr: 0x100006950, symSize: 0x34 }
  - { offset: 0x6013, size: 0x8, addend: 0x0, symName: __ZNKSt3__113basic_ostreamIcNS_11char_traitsIcEEE6sentrycvbB8ne180100Ev, symObjAddr: 0x15D8, symBinAddr: 0x100006984, symSize: 0x1C }
  - { offset: 0x6037, size: 0x8, addend: 0x0, symName: __ZNSt3__119ostreambuf_iteratorIcNS_11char_traitsIcEEEC1B8ne180100ERNS_13basic_ostreamIcS2_EE, symObjAddr: 0x1808, symBinAddr: 0x100006BB4, symSize: 0x34 }
  - { offset: 0x606D, size: 0x8, addend: 0x0, symName: __ZNKSt3__18ios_base5flagsB8ne180100Ev, symObjAddr: 0x183C, symBinAddr: 0x100006BE8, symSize: 0x18 }
  - { offset: 0x6093, size: 0x8, addend: 0x0, symName: __ZNKSt3__19basic_iosIcNS_11char_traitsIcEEE4fillB8ne180100Ev, symObjAddr: 0x1854, symBinAddr: 0x100006C00, symSize: 0x64 }
  - { offset: 0x60B7, size: 0x8, addend: 0x0, symName: __ZNKSt3__119ostreambuf_iteratorIcNS_11char_traitsIcEEE6failedB8ne180100Ev, symObjAddr: 0x18B8, symBinAddr: 0x100006C64, symSize: 0x20 }
  - { offset: 0x60DB, size: 0x8, addend: 0x0, symName: __ZNSt3__19basic_iosIcNS_11char_traitsIcEEE8setstateB8ne180100Ej, symObjAddr: 0x18D8, symBinAddr: 0x100006C84, symSize: 0x2C }
  - { offset: 0x610E, size: 0x8, addend: 0x0, symName: __ZNKSt3__18ios_base5widthB8ne180100Ev, symObjAddr: 0x1914, symBinAddr: 0x100006CC0, symSize: 0x18 }
  - { offset: 0x6134, size: 0x8, addend: 0x0, symName: __ZNSt3__115basic_streambufIcNS_11char_traitsIcEEE5sputnB8ne180100EPKcl, symObjAddr: 0x192C, symBinAddr: 0x100006CD8, symSize: 0x3C }
  - { offset: 0x6174, size: 0x8, addend: 0x0, symName: __ZNSt3__112basic_stringIcNS_11char_traitsIcEENS_9allocatorIcEEEC1B8ne180100Emc, symObjAddr: 0x1968, symBinAddr: 0x100006D14, symSize: 0x3C }
  - { offset: 0x61BA, size: 0x8, addend: 0x0, symName: __ZNSt3__112basic_stringIcNS_11char_traitsIcEENS_9allocatorIcEEE4dataB8ne180100Ev, symObjAddr: 0x19A4, symBinAddr: 0x100006D50, symSize: 0x28 }
  - { offset: 0x61DE, size: 0x8, addend: 0x0, symName: __ZNSt3__18ios_base5widthB8ne180100El, symObjAddr: 0x19CC, symBinAddr: 0x100006D78, symSize: 0x2C }
  - { offset: 0x6222, size: 0x8, addend: 0x0, symName: __ZNSt3__112basic_stringIcNS_11char_traitsIcEENS_9allocatorIcEEEC2B8ne180100Emc, symObjAddr: 0x19F8, symBinAddr: 0x100006DA4, symSize: 0x4C }
  - { offset: 0x626D, size: 0x8, addend: 0x0, symName: __ZNSt3__117__compressed_pairINS_12basic_stringIcNS_11char_traitsIcEENS_9allocatorIcEEE5__repES5_EC1B8ne180100INS_18__default_init_tagESA_EEOT_OT0_, symObjAddr: 0x1A44, symBinAddr: 0x100006DF0, symSize: 0x3C }
  - { offset: 0x62C3, size: 0x8, addend: 0x0, symName: __ZNSt3__117__compressed_pairINS_12basic_stringIcNS_11char_traitsIcEENS_9allocatorIcEEE5__repES5_EC2B8ne180100INS_18__default_init_tagESA_EEOT_OT0_, symObjAddr: 0x1A80, symBinAddr: 0x100006E2C, symSize: 0x3C }
  - { offset: 0x6319, size: 0x8, addend: 0x0, symName: __ZNSt3__122__compressed_pair_elemINS_12basic_stringIcNS_11char_traitsIcEENS_9allocatorIcEEE5__repELi0ELb0EEC2B8ne180100ENS_18__default_init_tagE, symObjAddr: 0x1ABC, symBinAddr: 0x100006E68, symSize: 0x14 }
  - { offset: 0x634B, size: 0x8, addend: 0x0, symName: __ZNSt3__122__compressed_pair_elemINS_9allocatorIcEELi1ELb1EEC2B8ne180100ENS_18__default_init_tagE, symObjAddr: 0x1AD0, symBinAddr: 0x100006E7C, symSize: 0x2C }
  - { offset: 0x637D, size: 0x8, addend: 0x0, symName: __ZNSt3__19allocatorIcEC2B8ne180100Ev, symObjAddr: 0x1AFC, symBinAddr: 0x100006EA8, symSize: 0x2C }
  - { offset: 0x63A5, size: 0x8, addend: 0x0, symName: __ZNSt3__116__non_trivial_ifILb1ENS_9allocatorIcEEEC2B8ne180100Ev, symObjAddr: 0x1B28, symBinAddr: 0x100006ED4, symSize: 0x14 }
  - { offset: 0x63CD, size: 0x8, addend: 0x0, symName: __ZNSt3__112basic_stringIcNS_11char_traitsIcEENS_9allocatorIcEEE13__get_pointerB8ne180100Ev, symObjAddr: 0x1B50, symBinAddr: 0x100006EFC, symSize: 0x54 }
  - { offset: 0x63F1, size: 0x8, addend: 0x0, symName: __ZNKSt3__112basic_stringIcNS_11char_traitsIcEENS_9allocatorIcEEE9__is_longB8ne180100Ev, symObjAddr: 0x1BA4, symBinAddr: 0x100006F50, symSize: 0x34 }
  - { offset: 0x6415, size: 0x8, addend: 0x0, symName: __ZNSt3__112basic_stringIcNS_11char_traitsIcEENS_9allocatorIcEEE18__get_long_pointerB8ne180100Ev, symObjAddr: 0x1BD8, symBinAddr: 0x100006F84, symSize: 0x28 }
  - { offset: 0x6439, size: 0x8, addend: 0x0, symName: __ZNSt3__112basic_stringIcNS_11char_traitsIcEENS_9allocatorIcEEE19__get_short_pointerB8ne180100Ev, symObjAddr: 0x1C00, symBinAddr: 0x100006FAC, symSize: 0x28 }
  - { offset: 0x645D, size: 0x8, addend: 0x0, symName: __ZNKSt3__117__compressed_pairINS_12basic_stringIcNS_11char_traitsIcEENS_9allocatorIcEEE5__repES5_E5firstB8ne180100Ev, symObjAddr: 0x1C28, symBinAddr: 0x100006FD4, symSize: 0x24 }
  - { offset: 0x6481, size: 0x8, addend: 0x0, symName: __ZNKSt3__122__compressed_pair_elemINS_12basic_stringIcNS_11char_traitsIcEENS_9allocatorIcEEE5__repELi0ELb0EE5__getB8ne180100Ev, symObjAddr: 0x1C4C, symBinAddr: 0x100006FF8, symSize: 0x14 }
  - { offset: 0x64A5, size: 0x8, addend: 0x0, symName: __ZNSt3__117__compressed_pairINS_12basic_stringIcNS_11char_traitsIcEENS_9allocatorIcEEE5__repES5_E5firstB8ne180100Ev, symObjAddr: 0x1C60, symBinAddr: 0x10000700C, symSize: 0x24 }
  - { offset: 0x64C9, size: 0x8, addend: 0x0, symName: __ZNSt3__122__compressed_pair_elemINS_12basic_stringIcNS_11char_traitsIcEENS_9allocatorIcEEE5__repELi0ELb0EE5__getB8ne180100Ev, symObjAddr: 0x1C84, symBinAddr: 0x100007030, symSize: 0x14 }
  - { offset: 0x64ED, size: 0x8, addend: 0x0, symName: __ZNSt3__114pointer_traitsIPcE10pointer_toB8ne180100ERc, symObjAddr: 0x1C98, symBinAddr: 0x100007044, symSize: 0x14 }
  - { offset: 0x650F, size: 0x8, addend: 0x0, symName: __ZNSt3__119ostreambuf_iteratorIcNS_11char_traitsIcEEEC2B8ne180100ERNS_13basic_ostreamIcS2_EE, symObjAddr: 0x1CAC, symBinAddr: 0x100007058, symSize: 0x54 }
  - { offset: 0x6545, size: 0x8, addend: 0x0, symName: __ZNKSt3__19basic_iosIcNS_11char_traitsIcEEE5rdbufB8ne180100Ev, symObjAddr: 0x1D00, symBinAddr: 0x1000070AC, symSize: 0x24 }
  - { offset: 0x6569, size: 0x8, addend: 0x0, symName: __ZNKSt3__18ios_base5rdbufB8ne180100Ev, symObjAddr: 0x1D24, symBinAddr: 0x1000070D0, symSize: 0x18 }
  - { offset: 0x658D, size: 0x8, addend: 0x0, symName: __ZNSt3__111char_traitsIcE11eq_int_typeB8ne180100Eii, symObjAddr: 0x1D3C, symBinAddr: 0x1000070E8, symSize: 0x24 }
  - { offset: 0x65BF, size: 0x8, addend: 0x0, symName: __ZNSt3__111char_traitsIcE3eofB8ne180100Ev, symObjAddr: 0x1D60, symBinAddr: 0x10000710C, symSize: 0x8 }
  - { offset: 0x65D2, size: 0x8, addend: 0x0, symName: __ZNKSt3__19basic_iosIcNS_11char_traitsIcEEE5widenB8ne180100Ec, symObjAddr: 0x1D68, symBinAddr: 0x100007114, symSize: 0x84 }
  - { offset: 0x6647, size: 0x8, addend: 0x0, symName: __ZNKSt3__15ctypeIcE5widenB8ne180100Ec, symObjAddr: 0x1E18, symBinAddr: 0x1000071C4, symSize: 0x38 }
  - { offset: 0x667A, size: 0x8, addend: 0x0, symName: __ZNSt3__18ios_base8setstateB8ne180100Ej, symObjAddr: 0x1E50, symBinAddr: 0x1000071FC, symSize: 0x34 }
  - { offset: 0x66AF, size: 0x8, addend: 0x0, symName: __ZN9LinkQueueIiEC2Ev, symObjAddr: 0x1EA8, symBinAddr: 0x100007254, symSize: 0x80 }
  - { offset: 0x66D7, size: 0x8, addend: 0x0, symName: __ZN4NodeIiEC1ERKiPS0_, symObjAddr: 0x1F28, symBinAddr: 0x1000072D4, symSize: 0x3C }
  - { offset: 0x671B, size: 0x8, addend: 0x0, symName: __ZN4NodeIiEC2ERKiPS0_, symObjAddr: 0x1F64, symBinAddr: 0x100007310, symSize: 0x30 }
  - { offset: 0x675F, size: 0x8, addend: 0x0, symName: __ZN9LinkQueueIiED2Ev, symObjAddr: 0x1F94, symBinAddr: 0x100007340, symSize: 0x68 }
  - { offset: 0x6787, size: 0x8, addend: 0x0, symName: __ZN9LinkQueueIiE5ClearEv, symObjAddr: 0x1FFC, symBinAddr: 0x1000073A8, symSize: 0x40 }
  - { offset: 0x67B9, size: 0x8, addend: 0x0, symName: __ZN9CircQueueINSt3__112basic_stringIcNS0_11char_traitsIcEENS0_9allocatorIcEEEEEC2Ei, symObjAddr: 0x2070, symBinAddr: 0x10000741C, symSize: 0xF8 }
  - { offset: 0x67EF, size: 0x8, addend: 0x0, symName: __ZN9CircQueueINSt3__112basic_stringIcNS0_11char_traitsIcEENS0_9allocatorIcEEEEED2Ev, symObjAddr: 0x2168, symBinAddr: 0x100007514, symSize: 0xA0 }
  - { offset: 0x6817, size: 0x8, addend: 0x0, symName: __ZNSt3__112basic_stringIcNS_11char_traitsIcEENS_9allocatorIcEEEC2B8ne180100ILi0EEEPKc, symObjAddr: 0x2208, symBinAddr: 0x1000075B4, symSize: 0x58 }
  - { offset: 0x6854, size: 0x8, addend: 0x0, symName: __ZNSt3__112basic_stringIcNS_11char_traitsIcEENS_9allocatorIcEEEC2B8ne180100Ev, symObjAddr: 0x2260, symBinAddr: 0x10000760C, symSize: 0x48 }
  - { offset: 0x6881, size: 0x8, addend: 0x0, symName: __ZNSt3__117__compressed_pairINS_12basic_stringIcNS_11char_traitsIcEENS_9allocatorIcEEE5__repES5_EC1B8ne180100INS_16__value_init_tagENS_18__default_init_tagEEEOT_OT0_, symObjAddr: 0x22A8, symBinAddr: 0x100007654, symSize: 0x3C }
  - { offset: 0x68D7, size: 0x8, addend: 0x0, symName: __ZNKSt3__112basic_stringIcNS_11char_traitsIcEENS_9allocatorIcEEE14__annotate_newB8ne180100Em, symObjAddr: 0x22E4, symBinAddr: 0x100007690, symSize: 0x14 }
  - { offset: 0x690A, size: 0x8, addend: 0x0, symName: __ZNSt3__117__compressed_pairINS_12basic_stringIcNS_11char_traitsIcEENS_9allocatorIcEEE5__repES5_EC2B8ne180100INS_16__value_init_tagENS_18__default_init_tagEEEOT_OT0_, symObjAddr: 0x22F8, symBinAddr: 0x1000076A4, symSize: 0x3C }
  - { offset: 0x6960, size: 0x8, addend: 0x0, symName: __ZNSt3__122__compressed_pair_elemINS_12basic_stringIcNS_11char_traitsIcEENS_9allocatorIcEEE5__repELi0ELb0EEC2B8ne180100ENS_16__value_init_tagE, symObjAddr: 0x2334, symBinAddr: 0x1000076E0, symSize: 0x20 }
  - { offset: 0x6992, size: 0x8, addend: 0x0, symName: __ZNKSt3__112basic_stringIcNS_11char_traitsIcEENS_9allocatorIcEEE4sizeB8ne180100Ev, symObjAddr: 0x2354, symBinAddr: 0x100007700, symSize: 0x54 }
  - { offset: 0x69B6, size: 0x8, addend: 0x0, symName: __ZNKSt3__112basic_stringIcNS_11char_traitsIcEENS_9allocatorIcEEE15__get_long_sizeB8ne180100Ev, symObjAddr: 0x23A8, symBinAddr: 0x100007754, symSize: 0x28 }
  - { offset: 0x69DA, size: 0x8, addend: 0x0, symName: __ZNKSt3__112basic_stringIcNS_11char_traitsIcEENS_9allocatorIcEEE16__get_short_sizeB8ne180100Ev, symObjAddr: 0x23D0, symBinAddr: 0x10000777C, symSize: 0x34 }
  - { offset: 0x69FE, size: 0x8, addend: 0x0, symName: __ZNKSt3__112basic_stringIcNS_11char_traitsIcEENS_9allocatorIcEEE4dataB8ne180100Ev, symObjAddr: 0x2404, symBinAddr: 0x1000077B0, symSize: 0x28 }
  - { offset: 0x6A22, size: 0x8, addend: 0x0, symName: __ZNKSt3__112basic_stringIcNS_11char_traitsIcEENS_9allocatorIcEEE13__get_pointerB8ne180100Ev, symObjAddr: 0x2440, symBinAddr: 0x1000077EC, symSize: 0x54 }
  - { offset: 0x6A46, size: 0x8, addend: 0x0, symName: __ZNKSt3__112basic_stringIcNS_11char_traitsIcEENS_9allocatorIcEEE18__get_long_pointerB8ne180100Ev, symObjAddr: 0x2494, symBinAddr: 0x100007840, symSize: 0x28 }
  - { offset: 0x6A6A, size: 0x8, addend: 0x0, symName: __ZNKSt3__112basic_stringIcNS_11char_traitsIcEENS_9allocatorIcEEE19__get_short_pointerB8ne180100Ev, symObjAddr: 0x24BC, symBinAddr: 0x100007868, symSize: 0x28 }
  - { offset: 0x6A8E, size: 0x8, addend: 0x0, symName: __ZNSt3__114pointer_traitsIPKcE10pointer_toB8ne180100ERS1_, symObjAddr: 0x24E4, symBinAddr: 0x100007890, symSize: 0x14 }
...
