---
triple:          'arm64-apple-darwin'
binary-path:     "/Volumes/星舰雅请假记录/CPP学习（乐子版）/C项目/数据结构与算法/树/线索二叉树"
relocations:
  - { offset: 0x2FEF, size: 0x8, addend: 0x0, symName: __ZNSt3__124__put_character_sequenceB8ne180100IcNS_11char_traitsIcEEEERNS_13basic_ostreamIT_T0_EES7_PKS4_m, symObjAddr: 0x66C, symBinAddr: 0x100006B5C, symSize: 0x1E8 }
  - { offset: 0x3E7B, size: 0x8, addend: 0x0, symName: __ZNSt3__1lsB8ne180100INS_11char_traitsIcEEEERNS_13basic_ostreamIcT_EES6_PKc, symObjAddr: 0x3F4, symBinAddr: 0x1000068E4, symSize: 0x48 }
  - { offset: 0x3EC1, size: 0x8, addend: 0x0, symName: __ZNSt3__1lsB8ne180100INS_11char_traitsIcEEEERNS_13basic_ostreamIcT_EES6_c, symObjAddr: 0x638, symBinAddr: 0x100006B28, symSize: 0x34 }
  - { offset: 0x3F07, size: 0x8, addend: 0x0, symName: __ZNSt3__116__pad_and_outputB8ne180100IcNS_11char_traitsIcEEEENS_19ostreambuf_iteratorIT_T0_EES6_PKS4_S8_S8_RNS_8ios_baseES4_, symObjAddr: 0x870, symBinAddr: 0x100006D60, symSize: 0x214 }
  - { offset: 0x3FD6, size: 0x8, addend: 0x0, symName: __ZNSt3__112__to_addressB8ne180100IcEEPT_S2_, symObjAddr: 0xDB8, symBinAddr: 0x1000072A8, symSize: 0x14 }
  - { offset: 0x403E, size: 0x8, addend: 0x0, symName: __ZNSt3__19use_facetB8ne180100INS_5ctypeIcEEEERKT_RKNS_6localeE, symObjAddr: 0x1068, symBinAddr: 0x100007558, symSize: 0x2C }
  - { offset: 0x450B, size: 0x8, addend: 0x0, symName: __ZNSt3__118__constexpr_strlenB8ne180100EPKc, symObjAddr: 0x1598, symBinAddr: 0x100007A88, symSize: 0x24 }
  - { offset: 0x5501, size: 0x8, addend: 0x0, symName: _main, symObjAddr: 0x0, symBinAddr: 0x1000064F0, symSize: 0xC8 }
  - { offset: 0x57A1, size: 0x8, addend: 0x0, symName: __ZN18ThreadedBinaryTreeIcE13MakeSampleRawEv, symObjAddr: 0xC8, symBinAddr: 0x1000065B8, symSize: 0x1F8 }
  - { offset: 0x580B, size: 0x8, addend: 0x0, symName: __ZN18ThreadedBinaryTreeIcEC1Ev, symObjAddr: 0x2C0, symBinAddr: 0x1000067B0, symSize: 0x2C }
  - { offset: 0x5833, size: 0x8, addend: 0x0, symName: __ZN18ThreadedBinaryTreeIcE27BuildFromRawInorderThreadedEPK7RawNodeIcEb, symObjAddr: 0x2EC, symBinAddr: 0x1000067DC, symSize: 0x108 }
  - { offset: 0x58AB, size: 0x8, addend: 0x0, symName: __ZNK18ThreadedBinaryTreeIcE15InOrderTraverseEPFvRKcE, symObjAddr: 0x43C, symBinAddr: 0x10000692C, symSize: 0x100 }
  - { offset: 0x5915, size: 0x8, addend: 0x0, symName: __ZL10print_charRKc, symObjAddr: 0x53C, symBinAddr: 0x100006A2C, symSize: 0x38 }
  - { offset: 0x593D, size: 0x8, addend: 0x0, symName: __ZN18ThreadedBinaryTreeIcE10DestroyRawERP7RawNodeIcE, symObjAddr: 0x574, symBinAddr: 0x100006A64, symSize: 0x7C }
  - { offset: 0x595F, size: 0x8, addend: 0x0, symName: __ZN18ThreadedBinaryTreeIcED1Ev, symObjAddr: 0x5F0, symBinAddr: 0x100006AE0, symSize: 0x2C }
  - { offset: 0x5987, size: 0x8, addend: 0x0, symName: __ZN18ThreadedBinaryTreeIcEC2Ev, symObjAddr: 0x61C, symBinAddr: 0x100006B0C, symSize: 0x1C }
  - { offset: 0x59CD, size: 0x8, addend: 0x0, symName: __ZNKSt3__113basic_ostreamIcNS_11char_traitsIcEEE6sentrycvbB8ne180100Ev, symObjAddr: 0x854, symBinAddr: 0x100006D44, symSize: 0x1C }
  - { offset: 0x59F1, size: 0x8, addend: 0x0, symName: __ZNSt3__119ostreambuf_iteratorIcNS_11char_traitsIcEEEC1B8ne180100ERNS_13basic_ostreamIcS2_EE, symObjAddr: 0xA84, symBinAddr: 0x100006F74, symSize: 0x34 }
  - { offset: 0x5A27, size: 0x8, addend: 0x0, symName: __ZNKSt3__18ios_base5flagsB8ne180100Ev, symObjAddr: 0xAB8, symBinAddr: 0x100006FA8, symSize: 0x18 }
  - { offset: 0x5A4D, size: 0x8, addend: 0x0, symName: __ZNKSt3__19basic_iosIcNS_11char_traitsIcEEE4fillB8ne180100Ev, symObjAddr: 0xAD0, symBinAddr: 0x100006FC0, symSize: 0x64 }
  - { offset: 0x5A71, size: 0x8, addend: 0x0, symName: __ZNKSt3__119ostreambuf_iteratorIcNS_11char_traitsIcEEE6failedB8ne180100Ev, symObjAddr: 0xB34, symBinAddr: 0x100007024, symSize: 0x20 }
  - { offset: 0x5A95, size: 0x8, addend: 0x0, symName: __ZNSt3__19basic_iosIcNS_11char_traitsIcEEE8setstateB8ne180100Ej, symObjAddr: 0xB54, symBinAddr: 0x100007044, symSize: 0x2C }
  - { offset: 0x5AC8, size: 0x8, addend: 0x0, symName: __ZNKSt3__18ios_base5widthB8ne180100Ev, symObjAddr: 0xB90, symBinAddr: 0x100007080, symSize: 0x18 }
  - { offset: 0x5AEE, size: 0x8, addend: 0x0, symName: __ZNSt3__115basic_streambufIcNS_11char_traitsIcEEE5sputnB8ne180100EPKcl, symObjAddr: 0xBA8, symBinAddr: 0x100007098, symSize: 0x3C }
  - { offset: 0x5B2E, size: 0x8, addend: 0x0, symName: __ZNSt3__112basic_stringIcNS_11char_traitsIcEENS_9allocatorIcEEEC1B8ne180100Emc, symObjAddr: 0xBE4, symBinAddr: 0x1000070D4, symSize: 0x3C }
  - { offset: 0x5B74, size: 0x8, addend: 0x0, symName: __ZNSt3__112basic_stringIcNS_11char_traitsIcEENS_9allocatorIcEEE4dataB8ne180100Ev, symObjAddr: 0xC20, symBinAddr: 0x100007110, symSize: 0x28 }
  - { offset: 0x5B98, size: 0x8, addend: 0x0, symName: __ZNSt3__18ios_base5widthB8ne180100El, symObjAddr: 0xC48, symBinAddr: 0x100007138, symSize: 0x2C }
  - { offset: 0x5BDC, size: 0x8, addend: 0x0, symName: __ZNSt3__112basic_stringIcNS_11char_traitsIcEENS_9allocatorIcEEEC2B8ne180100Emc, symObjAddr: 0xC74, symBinAddr: 0x100007164, symSize: 0x4C }
  - { offset: 0x5C27, size: 0x8, addend: 0x0, symName: __ZNSt3__117__compressed_pairINS_12basic_stringIcNS_11char_traitsIcEENS_9allocatorIcEEE5__repES5_EC1B8ne180100INS_18__default_init_tagESA_EEOT_OT0_, symObjAddr: 0xCC0, symBinAddr: 0x1000071B0, symSize: 0x3C }
  - { offset: 0x5C7D, size: 0x8, addend: 0x0, symName: __ZNSt3__117__compressed_pairINS_12basic_stringIcNS_11char_traitsIcEENS_9allocatorIcEEE5__repES5_EC2B8ne180100INS_18__default_init_tagESA_EEOT_OT0_, symObjAddr: 0xCFC, symBinAddr: 0x1000071EC, symSize: 0x3C }
  - { offset: 0x5CD3, size: 0x8, addend: 0x0, symName: __ZNSt3__122__compressed_pair_elemINS_12basic_stringIcNS_11char_traitsIcEENS_9allocatorIcEEE5__repELi0ELb0EEC2B8ne180100ENS_18__default_init_tagE, symObjAddr: 0xD38, symBinAddr: 0x100007228, symSize: 0x14 }
  - { offset: 0x5D05, size: 0x8, addend: 0x0, symName: __ZNSt3__122__compressed_pair_elemINS_9allocatorIcEELi1ELb1EEC2B8ne180100ENS_18__default_init_tagE, symObjAddr: 0xD4C, symBinAddr: 0x10000723C, symSize: 0x2C }
  - { offset: 0x5D37, size: 0x8, addend: 0x0, symName: __ZNSt3__19allocatorIcEC2B8ne180100Ev, symObjAddr: 0xD78, symBinAddr: 0x100007268, symSize: 0x2C }
  - { offset: 0x5D5F, size: 0x8, addend: 0x0, symName: __ZNSt3__116__non_trivial_ifILb1ENS_9allocatorIcEEEC2B8ne180100Ev, symObjAddr: 0xDA4, symBinAddr: 0x100007294, symSize: 0x14 }
  - { offset: 0x5D87, size: 0x8, addend: 0x0, symName: __ZNSt3__112basic_stringIcNS_11char_traitsIcEENS_9allocatorIcEEE13__get_pointerB8ne180100Ev, symObjAddr: 0xDCC, symBinAddr: 0x1000072BC, symSize: 0x54 }
  - { offset: 0x5DAB, size: 0x8, addend: 0x0, symName: __ZNKSt3__112basic_stringIcNS_11char_traitsIcEENS_9allocatorIcEEE9__is_longB8ne180100Ev, symObjAddr: 0xE20, symBinAddr: 0x100007310, symSize: 0x34 }
  - { offset: 0x5DCF, size: 0x8, addend: 0x0, symName: __ZNSt3__112basic_stringIcNS_11char_traitsIcEENS_9allocatorIcEEE18__get_long_pointerB8ne180100Ev, symObjAddr: 0xE54, symBinAddr: 0x100007344, symSize: 0x28 }
  - { offset: 0x5DF3, size: 0x8, addend: 0x0, symName: __ZNSt3__112basic_stringIcNS_11char_traitsIcEENS_9allocatorIcEEE19__get_short_pointerB8ne180100Ev, symObjAddr: 0xE7C, symBinAddr: 0x10000736C, symSize: 0x28 }
  - { offset: 0x5E17, size: 0x8, addend: 0x0, symName: __ZNKSt3__117__compressed_pairINS_12basic_stringIcNS_11char_traitsIcEENS_9allocatorIcEEE5__repES5_E5firstB8ne180100Ev, symObjAddr: 0xEA4, symBinAddr: 0x100007394, symSize: 0x24 }
  - { offset: 0x5E3B, size: 0x8, addend: 0x0, symName: __ZNKSt3__122__compressed_pair_elemINS_12basic_stringIcNS_11char_traitsIcEENS_9allocatorIcEEE5__repELi0ELb0EE5__getB8ne180100Ev, symObjAddr: 0xEC8, symBinAddr: 0x1000073B8, symSize: 0x14 }
  - { offset: 0x5E5F, size: 0x8, addend: 0x0, symName: __ZNSt3__117__compressed_pairINS_12basic_stringIcNS_11char_traitsIcEENS_9allocatorIcEEE5__repES5_E5firstB8ne180100Ev, symObjAddr: 0xEDC, symBinAddr: 0x1000073CC, symSize: 0x24 }
  - { offset: 0x5E83, size: 0x8, addend: 0x0, symName: __ZNSt3__122__compressed_pair_elemINS_12basic_stringIcNS_11char_traitsIcEENS_9allocatorIcEEE5__repELi0ELb0EE5__getB8ne180100Ev, symObjAddr: 0xF00, symBinAddr: 0x1000073F0, symSize: 0x14 }
  - { offset: 0x5EA7, size: 0x8, addend: 0x0, symName: __ZNSt3__114pointer_traitsIPcE10pointer_toB8ne180100ERc, symObjAddr: 0xF14, symBinAddr: 0x100007404, symSize: 0x14 }
  - { offset: 0x5EC9, size: 0x8, addend: 0x0, symName: __ZNSt3__119ostreambuf_iteratorIcNS_11char_traitsIcEEEC2B8ne180100ERNS_13basic_ostreamIcS2_EE, symObjAddr: 0xF28, symBinAddr: 0x100007418, symSize: 0x54 }
  - { offset: 0x5EFF, size: 0x8, addend: 0x0, symName: __ZNKSt3__19basic_iosIcNS_11char_traitsIcEEE5rdbufB8ne180100Ev, symObjAddr: 0xF7C, symBinAddr: 0x10000746C, symSize: 0x24 }
  - { offset: 0x5F23, size: 0x8, addend: 0x0, symName: __ZNKSt3__18ios_base5rdbufB8ne180100Ev, symObjAddr: 0xFA0, symBinAddr: 0x100007490, symSize: 0x18 }
  - { offset: 0x5F47, size: 0x8, addend: 0x0, symName: __ZNSt3__111char_traitsIcE11eq_int_typeB8ne180100Eii, symObjAddr: 0xFB8, symBinAddr: 0x1000074A8, symSize: 0x24 }
  - { offset: 0x5F79, size: 0x8, addend: 0x0, symName: __ZNSt3__111char_traitsIcE3eofB8ne180100Ev, symObjAddr: 0xFDC, symBinAddr: 0x1000074CC, symSize: 0x8 }
  - { offset: 0x5F8C, size: 0x8, addend: 0x0, symName: __ZNKSt3__19basic_iosIcNS_11char_traitsIcEEE5widenB8ne180100Ec, symObjAddr: 0xFE4, symBinAddr: 0x1000074D4, symSize: 0x84 }
  - { offset: 0x6001, size: 0x8, addend: 0x0, symName: __ZNKSt3__15ctypeIcE5widenB8ne180100Ec, symObjAddr: 0x1094, symBinAddr: 0x100007584, symSize: 0x38 }
  - { offset: 0x6034, size: 0x8, addend: 0x0, symName: __ZNSt3__18ios_base8setstateB8ne180100Ej, symObjAddr: 0x10CC, symBinAddr: 0x1000075BC, symSize: 0x34 }
  - { offset: 0x6069, size: 0x8, addend: 0x0, symName: __ZN7RawNodeIcEC1ERKc, symObjAddr: 0x1100, symBinAddr: 0x1000075F0, symSize: 0x34 }
  - { offset: 0x609F, size: 0x8, addend: 0x0, symName: __ZN7RawNodeIcEC2ERKc, symObjAddr: 0x1134, symBinAddr: 0x100007624, symSize: 0x2C }
  - { offset: 0x60D5, size: 0x8, addend: 0x0, symName: __ZN18ThreadedBinaryTreeIcED2Ev, symObjAddr: 0x1160, symBinAddr: 0x100007650, symSize: 0x34 }
  - { offset: 0x60FD, size: 0x8, addend: 0x0, symName: __ZN18ThreadedBinaryTreeIcE5clearEv, symObjAddr: 0x1194, symBinAddr: 0x100007684, symSize: 0x90 }
  - { offset: 0x613D, size: 0x8, addend: 0x0, symName: __ZN18ThreadedBinaryTreeIcE7destroyERP10ThreadNodeIcE, symObjAddr: 0x1224, symBinAddr: 0x100007714, symSize: 0xAC }
  - { offset: 0x615F, size: 0x8, addend: 0x0, symName: __ZN18ThreadedBinaryTreeIcE11copyFromRawEPK7RawNodeIcE, symObjAddr: 0x12D0, symBinAddr: 0x1000077C0, symSize: 0xDC }
  - { offset: 0x618F, size: 0x8, addend: 0x0, symName: __ZN18ThreadedBinaryTreeIcE16inorderThreadingEP10ThreadNodeIcERS3_, symObjAddr: 0x13AC, symBinAddr: 0x10000789C, symSize: 0xFC }
  - { offset: 0x61BF, size: 0x8, addend: 0x0, symName: __ZN10ThreadNodeIcEC1Ev, symObjAddr: 0x14A8, symBinAddr: 0x100007998, symSize: 0x2C }
  - { offset: 0x61E7, size: 0x8, addend: 0x0, symName: __ZN10ThreadNodeIcEC1ERKc, symObjAddr: 0x14D4, symBinAddr: 0x1000079C4, symSize: 0x34 }
  - { offset: 0x621D, size: 0x8, addend: 0x0, symName: __ZN10ThreadNodeIcEC2ERKc, symObjAddr: 0x1508, symBinAddr: 0x1000079F8, symSize: 0x34 }
  - { offset: 0x6253, size: 0x8, addend: 0x0, symName: __ZN10ThreadNodeIcEC2Ev, symObjAddr: 0x153C, symBinAddr: 0x100007A2C, symSize: 0x28 }
  - { offset: 0x627B, size: 0x8, addend: 0x0, symName: __ZNSt3__111char_traitsIcE6lengthB8ne180100EPKc, symObjAddr: 0x1564, symBinAddr: 0x100007A54, symSize: 0x34 }
  - { offset: 0x629D, size: 0x8, addend: 0x0, symName: __ZN18ThreadedBinaryTreeIcE5firstEP10ThreadNodeIcE, symObjAddr: 0x15BC, symBinAddr: 0x100007AAC, symSize: 0x58 }
  - { offset: 0x62BF, size: 0x8, addend: 0x0, symName: __ZN18ThreadedBinaryTreeIcE4nextEP10ThreadNodeIcE, symObjAddr: 0x1614, symBinAddr: 0x100007B04, symSize: 0xB0 }
...
