---
triple:          'arm64-apple-darwin'
binary-path:     "/Volumes/星舰雅请假记录/CPP学习（乐子版）/C项目/数据结构与算法/查找/动态表查找"
relocations:
  - { offset: 0x3045, size: 0x8, addend: 0x0, symName: __ZNSt3__124__put_character_sequenceB8ne180100IcNS_11char_traitsIcEEEERNS_13basic_ostreamIT_T0_EES7_PKS4_m, symObjAddr: 0x20A4, symBinAddr: 0x10000A064, symSize: 0x1E8 }
  - { offset: 0x65D7, size: 0x8, addend: 0x0, symName: __ZNSt3__17advanceB8ne180100IPKillvEEvRT_T0_, symObjAddr: 0x31AC, symBinAddr: 0x10000B16C, symSize: 0x38 }
  - { offset: 0x8308, size: 0x8, addend: 0x0, symName: __ZNSt3__1lsB8ne180100INS_11char_traitsIcEEEERNS_13basic_ostreamIcT_EES6_PKc, symObjAddr: 0x250, symBinAddr: 0x100008210, symSize: 0x48 }
  - { offset: 0x834E, size: 0x8, addend: 0x0, symName: __ZNSt3__13maxB8ne180100IiEERKT_S3_S3_, symObjAddr: 0x348, symBinAddr: 0x100008308, symSize: 0x2C }
  - { offset: 0x8465, size: 0x8, addend: 0x0, symName: __ZNSt3__13getB8ne180100ILm0EbmEEONS_13tuple_elementIXT_ENS_4pairIT0_T1_EEE4typeEOS5_, symObjAddr: 0x9F8, symBinAddr: 0x1000089B8, symSize: 0x24 }
  - { offset: 0x84AF, size: 0x8, addend: 0x0, symName: __ZNSt3__13getB8ne180100ILm1EbmEEONS_13tuple_elementIXT_ENS_4pairIT0_T1_EEE4typeEOS5_, symObjAddr: 0xA1C, symBinAddr: 0x1000089DC, symSize: 0x24 }
  - { offset: 0x84F9, size: 0x8, addend: 0x0, symName: __ZNSt3__1neB8ne180100IPiEEbRKNS_11__wrap_iterIT_EES6_, symObjAddr: 0x1980, symBinAddr: 0x100009940, symSize: 0x30 }
  - { offset: 0x853C, size: 0x8, addend: 0x0, symName: __ZNSt3__13maxB8ne180100IiNS_6__lessIvvEEEERKT_S5_S5_T0_, symObjAddr: 0x1A10, symBinAddr: 0x1000099D0, symSize: 0x54 }
  - { offset: 0x8686, size: 0x8, addend: 0x0, symName: __ZNSt3__1eqB8ne180100IPiEEbRKNS_11__wrap_iterIT_EES6_, symObjAddr: 0x2048, symBinAddr: 0x10000A008, symSize: 0x44 }
  - { offset: 0x86C9, size: 0x8, addend: 0x0, symName: __ZNSt3__116__pad_and_outputB8ne180100IcNS_11char_traitsIcEEEENS_19ostreambuf_iteratorIT_T0_EES6_PKS4_S8_S8_RNS_8ios_baseES4_, symObjAddr: 0x22DC, symBinAddr: 0x10000A29C, symSize: 0x214 }
  - { offset: 0x8798, size: 0x8, addend: 0x0, symName: __ZNSt3__112__to_addressB8ne180100IcEEPT_S2_, symObjAddr: 0x2814, symBinAddr: 0x10000A7D4, symSize: 0x14 }
  - { offset: 0x8800, size: 0x8, addend: 0x0, symName: __ZNSt3__19use_facetB8ne180100INS_5ctypeIcEEEERKT_RKNS_6localeE, symObjAddr: 0x2AC4, symBinAddr: 0x10000AA84, symSize: 0x2C }
  - { offset: 0x8CCD, size: 0x8, addend: 0x0, symName: __ZNSt3__118__constexpr_strlenB8ne180100EPKc, symObjAddr: 0x2B5C, symBinAddr: 0x10000AB1C, symSize: 0x24 }
  - { offset: 0x8CF9, size: 0x8, addend: 0x0, symName: __ZNSt3__18distanceB8ne180100IPKiEENS_15iterator_traitsIT_E15difference_typeES4_S4_, symObjAddr: 0x2D70, symBinAddr: 0x10000AD30, symSize: 0x2C }
  - { offset: 0x8D3C, size: 0x8, addend: 0x0, symName: __ZNSt3__14nextB8ne180100IPKiTnNS_9enable_ifIXsr29__has_input_iterator_categoryIT_EE5valueEiE4typeELi0EEES4_S4_NS_15iterator_traitsIS4_E15difference_typeE, symObjAddr: 0x2DDC, symBinAddr: 0x10000AD9C, symSize: 0x34 }
  - { offset: 0x8D85, size: 0x8, addend: 0x0, symName: __ZNSt3__14copyB8ne180100IPKiPiEET0_T_S5_S4_, symObjAddr: 0x2E10, symBinAddr: 0x10000ADD0, symSize: 0x40 }
  - { offset: 0x8DDF, size: 0x8, addend: 0x0, symName: __ZNSt3__16__copyB8ne180100INS_17_ClassicAlgPolicyEPKiS3_PiEENS_4pairIT0_T2_EES6_T1_S7_, symObjAddr: 0x2EDC, symBinAddr: 0x10000AE9C, symSize: 0x44 }
  - { offset: 0x8E4B, size: 0x8, addend: 0x0, symName: __ZNSt3__121__convert_to_integralB8ne180100El, symObjAddr: 0x31E4, symBinAddr: 0x10000B1A4, symSize: 0x14 }
  - { offset: 0x8E77, size: 0x8, addend: 0x0, symName: __ZNSt3__19__advanceB8ne180100IPKiEEvRT_NS_15iterator_traitsIS3_E15difference_typeENS_26random_access_iterator_tagE, symObjAddr: 0x31F8, symBinAddr: 0x10000B1B8, symSize: 0x28 }
  - { offset: 0x8EC0, size: 0x8, addend: 0x0, symName: __ZNSt3__130__uninitialized_allocator_copyB8ne180100INS_9allocatorIiEEPKiS4_PiEET2_RT_T0_T1_S6_, symObjAddr: 0x325C, symBinAddr: 0x10000B21C, symSize: 0x80 }
  - { offset: 0x8F5D, size: 0x8, addend: 0x0, symName: __ZNSt3__114__unwrap_rangeB8ne180100IPKiS2_EENS_4pairIT0_S4_EET_S6_, symObjAddr: 0x3374, symBinAddr: 0x10000B334, symSize: 0x60 }
  - { offset: 0x8FA9, size: 0x8, addend: 0x0, symName: __ZNSt3__135__uninitialized_allocator_copy_implB8ne180100INS_9allocatorIiEEKiiiTnPNS_9enable_ifIXaaaaaasr31is_trivially_copy_constructibleIT1_EE5valuesr28is_trivially_copy_assignableIS5_EE5valuesr7is_sameIu14__remove_constIT0_Eu14__remove_constIT2_EEE5valuesr38__allocator_has_trivial_copy_constructIT_S5_EE5valueEvE4typeELPv0EEEPS8_RSA_PS6_SH_SF_, symObjAddr: 0x33D4, symBinAddr: 0x10000B394, symSize: 0x38 }
  - { offset: 0x902A, size: 0x8, addend: 0x0, symName: __ZNSt3__113__unwrap_iterB8ne180100IPiNS_18__unwrap_iter_implIS1_Lb1EEETnNS_9enable_ifIXsr21is_copy_constructibleIT_EE5valueEiE4typeELi0EEEDTclsrT0_8__unwrapclsr3stdE7declvalIS5_EEEES5_, symObjAddr: 0x340C, symBinAddr: 0x10000B3CC, symSize: 0x24 }
  - { offset: 0x906E, size: 0x8, addend: 0x0, symName: __ZNSt3__113__rewrap_iterB8ne180100IPiS1_NS_18__unwrap_iter_implIS1_Lb1EEEEET_S4_T0_, symObjAddr: 0x3430, symBinAddr: 0x10000B3F0, symSize: 0x3C }
  - { offset: 0x90C3, size: 0x8, addend: 0x0, symName: __ZNSt3__19make_pairB8ne180100IPKiS2_EENS_4pairINS_18__unwrap_ref_decayIT_E4typeENS4_IT0_E4typeEEEOS5_OS8_, symObjAddr: 0x346C, symBinAddr: 0x10000B42C, symSize: 0x38 }
  - { offset: 0x9112, size: 0x8, addend: 0x0, symName: __ZNSt3__113__unwrap_iterB8ne180100IPKiNS_18__unwrap_iter_implIS2_Lb1EEETnNS_9enable_ifIXsr21is_copy_constructibleIT_EE5valueEiE4typeELi0EEEDTclsrT0_8__unwrapclsr3stdE7declvalIS6_EEEES6_, symObjAddr: 0x34A4, symBinAddr: 0x10000B464, symSize: 0x24 }
  - { offset: 0x927D, size: 0x8, addend: 0x0, symName: __ZNSt3__112__to_addressB8ne180100IKiEEPT_S3_, symObjAddr: 0x355C, symBinAddr: 0x10000B51C, symSize: 0x14 }
  - { offset: 0x9305, size: 0x8, addend: 0x0, symName: __ZNSt3__112__to_addressB8ne180100IiEEPT_S2_, symObjAddr: 0x3594, symBinAddr: 0x10000B554, symSize: 0x14 }
  - { offset: 0x933A, size: 0x8, addend: 0x0, symName: __ZNSt3__123__dispatch_copy_or_moveB8ne180100INS_17_ClassicAlgPolicyENS_11__copy_loopIS1_EENS_14__copy_trivialEPKiS6_PiEENS_4pairIT2_T4_EES9_T3_SA_, symObjAddr: 0x3650, symBinAddr: 0x10000B610, symSize: 0x44 }
  - { offset: 0x93B8, size: 0x8, addend: 0x0, symName: __ZNSt3__121__unwrap_and_dispatchB8ne180100INS_10__overloadINS_11__copy_loopINS_17_ClassicAlgPolicyEEENS_14__copy_trivialEEEPKiS8_PiTnNS_9enable_ifIXsr12__can_rewrapIT0_T1_T2_EE5valueEiE4typeELi0EEENS_4pairISB_SD_EESB_SC_SD_, symObjAddr: 0x3694, symBinAddr: 0x10000B654, symSize: 0xB4 }
  - { offset: 0x958F, size: 0x8, addend: 0x0, symName: __ZNSt3__19make_pairB8ne180100IPKiPiEENS_4pairINS_18__unwrap_ref_decayIT_E4typeENS5_IT0_E4typeEEEOS6_OS9_, symObjAddr: 0x3790, symBinAddr: 0x10000B750, symSize: 0x38 }
  - { offset: 0x95DE, size: 0x8, addend: 0x0, symName: __ZNSt3__114__rewrap_rangeB8ne180100IPKiS2_EET_S3_T0_, symObjAddr: 0x37C8, symBinAddr: 0x10000B788, symSize: 0x2C }
  - { offset: 0x962A, size: 0x8, addend: 0x0, symName: __ZNSt3__119__copy_trivial_implB8ne180100IKiiEENS_4pairIPT_PT0_EES4_S4_S6_, symObjAddr: 0x37F4, symBinAddr: 0x10000B7B4, symSize: 0x80 }
  - { offset: 0x9692, size: 0x8, addend: 0x0, symName: __ZNSt3__119__constexpr_memmoveB8ne180100IiKiTnNS_9enable_ifIXsr23__is_always_bitcastableIT0_T_EE5valueEiE4typeELi0EEEPS4_S7_PS3_NS_15__element_countE, symObjAddr: 0x3874, symBinAddr: 0x10000B834, symSize: 0x60 }
  - { offset: 0x9700, size: 0x8, addend: 0x0, symName: __ZNSt3__19make_pairB8ne180100IRPKiPiEENS_4pairINS_18__unwrap_ref_decayIT_E4typeENS6_IT0_E4typeEEEOS7_OSA_, symObjAddr: 0x38D4, symBinAddr: 0x10000B894, symSize: 0x38 }
  - { offset: 0x974F, size: 0x8, addend: 0x0, symName: __ZNSt3__113__rewrap_iterB8ne180100IPKiS2_NS_18__unwrap_iter_implIS2_Lb1EEEEET_S5_T0_, symObjAddr: 0x39EC, symBinAddr: 0x10000B9AC, symSize: 0x3C }
  - { offset: 0x97A4, size: 0x8, addend: 0x0, symName: __ZNSt3__119__libcpp_deallocateB8ne180100EPvmm, symObjAddr: 0x3C6C, symBinAddr: 0x10000BC2C, symSize: 0x60 }
  - { offset: 0x9809, size: 0x8, addend: 0x0, symName: __ZNSt3__124__is_overaligned_for_newB8ne180100Em, symObjAddr: 0x3CCC, symBinAddr: 0x10000BC8C, symSize: 0x1C }
  - { offset: 0x9837, size: 0x8, addend: 0x0, symName: __ZNSt3__127__do_deallocate_handle_sizeB8ne180100IJSt11align_val_tEEEvPvmDpT_, symObjAddr: 0x3CE8, symBinAddr: 0x10000BCA8, symSize: 0x30 }
  - { offset: 0x988A, size: 0x8, addend: 0x0, symName: __ZNSt3__127__do_deallocate_handle_sizeB8ne180100IJEEEvPvmDpT_, symObjAddr: 0x3D18, symBinAddr: 0x10000BCD8, symSize: 0x28 }
  - { offset: 0x98C8, size: 0x8, addend: 0x0, symName: __ZNSt3__124__libcpp_operator_deleteB8ne180100IJPvSt11align_val_tEEEvDpT_, symObjAddr: 0x3D40, symBinAddr: 0x10000BD00, symSize: 0x2C }
  - { offset: 0x9911, size: 0x8, addend: 0x0, symName: __ZNSt3__124__libcpp_operator_deleteB8ne180100IJPvEEEvDpT_, symObjAddr: 0x3D6C, symBinAddr: 0x10000BD2C, symSize: 0x24 }
  - { offset: 0x9946, size: 0x8, addend: 0x0, symName: __ZNSt3__119__allocate_at_leastB8ne180100INS_9allocatorIiEEEENS_19__allocation_resultINS_16allocator_traitsIT_E7pointerEEERS5_m, symObjAddr: 0x3E44, symBinAddr: 0x10000BE04, symSize: 0x40 }
  - { offset: 0x9989, size: 0x8, addend: 0x0, symName: __ZNSt3__13minB8ne180100ImEERKT_S3_S3_, symObjAddr: 0x3E98, symBinAddr: 0x10000BE58, symSize: 0x2C }
  - { offset: 0x9BB6, size: 0x8, addend: 0x0, symName: __ZNSt3__13minB8ne180100ImNS_6__lessIvvEEEERKT_S5_S5_T0_, symObjAddr: 0x3F24, symBinAddr: 0x10000BEE4, symSize: 0x54 }
  - { offset: 0x9C10, size: 0x8, addend: 0x0, symName: __ZNSt3__120__throw_length_errorB8ne180100EPKc, symObjAddr: 0x3FFC, symBinAddr: 0x10000BFBC, symSize: 0x64 }
  - { offset: 0x9C38, size: 0x8, addend: 0x0, symName: __ZNSt3__117__libcpp_allocateB8ne180100Emm, symObjAddr: 0x4160, symBinAddr: 0x10000C120, symSize: 0x60 }
  - { offset: 0x9C92, size: 0x8, addend: 0x0, symName: __ZNSt3__121__libcpp_operator_newB8ne180100IJmSt11align_val_tEEEPvDpT_, symObjAddr: 0x41C0, symBinAddr: 0x10000C180, symSize: 0x2C }
  - { offset: 0x9CDF, size: 0x8, addend: 0x0, symName: __ZNSt3__121__libcpp_operator_newB8ne180100IJmEEEPvDpT_, symObjAddr: 0x41EC, symBinAddr: 0x10000C1AC, symSize: 0x24 }
  - { offset: 0x9D18, size: 0x8, addend: 0x0, symName: __ZNSt3__13maxB8ne180100ImEERKT_S3_S3_, symObjAddr: 0x4210, symBinAddr: 0x10000C1D0, symSize: 0x2C }
  - { offset: 0x9D5B, size: 0x8, addend: 0x0, symName: __ZNSt3__13maxB8ne180100ImNS_6__lessIvvEEEERKT_S5_S5_T0_, symObjAddr: 0x423C, symBinAddr: 0x10000C1FC, symSize: 0x54 }
  - { offset: 0x9DB5, size: 0x8, addend: 0x0, symName: __ZNSt3__110__distanceB8ne180100IPKiEENS_15iterator_traitsIT_E15difference_typeES4_S4_NS_26random_access_iterator_tagE, symObjAddr: 0x4290, symBinAddr: 0x10000C250, symSize: 0x28 }
  - { offset: 0x9E02, size: 0x8, addend: 0x0, symName: __ZNSt3__112__to_addressB8ne180100IP9BTreeNodeEEPT_S4_, symObjAddr: 0x48C0, symBinAddr: 0x10000C880, symSize: 0x14 }
  - { offset: 0x9E37, size: 0x8, addend: 0x0, symName: __ZNSt3__119__allocate_at_leastB8ne180100INS_9allocatorIP9BTreeNodeEEEENS_19__allocation_resultINS_16allocator_traitsIT_E7pointerEEERS7_m, symObjAddr: 0x4C74, symBinAddr: 0x10000CC34, symSize: 0x40 }
  - { offset: 0x9E7A, size: 0x8, addend: 0x0, symName: __ZNSt3__142__uninitialized_allocator_move_if_noexceptB8ne180100INS_9allocatorIP9BTreeNodeEENS_16reverse_iteratorIPS3_EES7_S3_vEET1_RT_T0_SB_S8_, symObjAddr: 0x4F00, symBinAddr: 0x10000CEC0, symSize: 0x78 }
  - { offset: 0x9EF7, size: 0x8, addend: 0x0, symName: __ZNSt3__14swapB8ne180100IPP9BTreeNodeEENS_9enable_ifIXaasr21is_move_constructibleIT_EE5valuesr18is_move_assignableIS5_EE5valueEvE4typeERS5_S8_, symObjAddr: 0x4FC4, symBinAddr: 0x10000CF84, symSize: 0x3C }
  - { offset: 0x9F48, size: 0x8, addend: 0x0, symName: __ZNSt3__14moveB8ne180100INS_16reverse_iteratorIPP9BTreeNodeEES5_EET0_T_S7_S6_, symObjAddr: 0x5014, symBinAddr: 0x10000CFD4, symSize: 0x78 }
  - { offset: 0x9FA2, size: 0x8, addend: 0x0, symName: __ZNSt3__16__moveB8ne180100INS_17_ClassicAlgPolicyENS_16reverse_iteratorIPP9BTreeNodeEES6_S6_EENS_4pairIT0_T2_EES8_T1_S9_, symObjAddr: 0x508C, symBinAddr: 0x10000D04C, symSize: 0x64 }
  - { offset: 0xA00E, size: 0x8, addend: 0x0, symName: __ZNSt3__123__dispatch_copy_or_moveB8ne180100INS_17_ClassicAlgPolicyENS_11__move_loopIS1_EENS_14__move_trivialENS_16reverse_iteratorIPP9BTreeNodeEES9_S9_EENS_4pairIT2_T4_EESB_T3_SC_, symObjAddr: 0x50F0, symBinAddr: 0x10000D0B0, symSize: 0x64 }
  - { offset: 0xA08C, size: 0x8, addend: 0x0, symName: __ZNSt3__121__unwrap_and_dispatchB8ne180100INS_10__overloadINS_11__move_loopINS_17_ClassicAlgPolicyEEENS_14__move_trivialEEENS_16reverse_iteratorIPP9BTreeNodeEESB_SB_TnNS_9enable_ifIXsr12__can_rewrapIT0_T1_T2_EE5valueEiE4typeELi0EEENS_4pairISD_SF_EESD_SE_SF_, symObjAddr: 0x5154, symBinAddr: 0x10000D114, symSize: 0x12C }
  - { offset: 0xA11C, size: 0x8, addend: 0x0, symName: __ZNSt3__114__unwrap_rangeB8ne180100INS_16reverse_iteratorIPP9BTreeNodeEES5_EENS_4pairIT0_S7_EET_S9_, symObjAddr: 0x5280, symBinAddr: 0x10000D240, symSize: 0x84 }
  - { offset: 0xA2D6, size: 0x8, addend: 0x0, symName: __ZNSt3__113__unwrap_iterB8ne180100INS_16reverse_iteratorIPP9BTreeNodeEENS_18__unwrap_iter_implIS5_Lb0EEETnNS_9enable_ifIXsr21is_copy_constructibleIT_EE5valueEiE4typeELi0EEEDTclsrT0_8__unwrapclsr3stdE7declvalIS9_EEEES9_, symObjAddr: 0x53A4, symBinAddr: 0x10000D364, symSize: 0x44 }
  - { offset: 0xA31A, size: 0x8, addend: 0x0, symName: __ZNSt3__19make_pairB8ne180100INS_16reverse_iteratorIPP9BTreeNodeEES5_EENS_4pairINS_18__unwrap_ref_decayIT_E4typeENS7_IT0_E4typeEEEOS8_OSB_, symObjAddr: 0x53E8, symBinAddr: 0x10000D3A8, symSize: 0x38 }
  - { offset: 0xA369, size: 0x8, addend: 0x0, symName: __ZNSt3__114__rewrap_rangeB8ne180100INS_16reverse_iteratorIPP9BTreeNodeEES5_EET_S6_T0_, symObjAddr: 0x5420, symBinAddr: 0x10000D3E0, symSize: 0x5C }
  - { offset: 0xA3B5, size: 0x8, addend: 0x0, symName: __ZNSt3__113__rewrap_iterB8ne180100INS_16reverse_iteratorIPP9BTreeNodeEES5_NS_18__unwrap_iter_implIS5_Lb0EEEEET_S8_T0_, symObjAddr: 0x547C, symBinAddr: 0x10000D43C, symSize: 0x74 }
  - { offset: 0xA40A, size: 0x8, addend: 0x0, symName: __ZNSt3__1neB8ne180100IPP9BTreeNodeS3_EEbRKNS_16reverse_iteratorIT_EERKNS4_IT0_EE, symObjAddr: 0x54F0, symBinAddr: 0x10000D4B0, symSize: 0x44 }
  - { offset: 0xA544, size: 0x8, addend: 0x0, symName: __ZNSt3__112__to_addressB8ne180100IP13BPlusTreeNodeEEPT_S4_, symObjAddr: 0x5FA0, symBinAddr: 0x10000DF60, symSize: 0x14 }
  - { offset: 0xA579, size: 0x8, addend: 0x0, symName: __ZNSt3__119__allocate_at_leastB8ne180100INS_9allocatorIP13BPlusTreeNodeEEEENS_19__allocation_resultINS_16allocator_traitsIT_E7pointerEEERS7_m, symObjAddr: 0x6354, symBinAddr: 0x10000E314, symSize: 0x40 }
  - { offset: 0xA5BC, size: 0x8, addend: 0x0, symName: __ZNSt3__142__uninitialized_allocator_move_if_noexceptB8ne180100INS_9allocatorIP13BPlusTreeNodeEENS_16reverse_iteratorIPS3_EES7_S3_vEET1_RT_T0_SB_S8_, symObjAddr: 0x65E0, symBinAddr: 0x10000E5A0, symSize: 0x78 }
  - { offset: 0xA639, size: 0x8, addend: 0x0, symName: __ZNSt3__14swapB8ne180100IPP13BPlusTreeNodeEENS_9enable_ifIXaasr21is_move_constructibleIT_EE5valuesr18is_move_assignableIS5_EE5valueEvE4typeERS5_S8_, symObjAddr: 0x66A4, symBinAddr: 0x10000E664, symSize: 0x3C }
  - { offset: 0xA68A, size: 0x8, addend: 0x0, symName: __ZNSt3__14moveB8ne180100INS_16reverse_iteratorIPP13BPlusTreeNodeEES5_EET0_T_S7_S6_, symObjAddr: 0x66F4, symBinAddr: 0x10000E6B4, symSize: 0x78 }
  - { offset: 0xA6E4, size: 0x8, addend: 0x0, symName: __ZNSt3__16__moveB8ne180100INS_17_ClassicAlgPolicyENS_16reverse_iteratorIPP13BPlusTreeNodeEES6_S6_EENS_4pairIT0_T2_EES8_T1_S9_, symObjAddr: 0x676C, symBinAddr: 0x10000E72C, symSize: 0x64 }
  - { offset: 0xA750, size: 0x8, addend: 0x0, symName: __ZNSt3__123__dispatch_copy_or_moveB8ne180100INS_17_ClassicAlgPolicyENS_11__move_loopIS1_EENS_14__move_trivialENS_16reverse_iteratorIPP13BPlusTreeNodeEES9_S9_EENS_4pairIT2_T4_EESB_T3_SC_, symObjAddr: 0x67D0, symBinAddr: 0x10000E790, symSize: 0x64 }
  - { offset: 0xA7CE, size: 0x8, addend: 0x0, symName: __ZNSt3__121__unwrap_and_dispatchB8ne180100INS_10__overloadINS_11__move_loopINS_17_ClassicAlgPolicyEEENS_14__move_trivialEEENS_16reverse_iteratorIPP13BPlusTreeNodeEESB_SB_TnNS_9enable_ifIXsr12__can_rewrapIT0_T1_T2_EE5valueEiE4typeELi0EEENS_4pairISD_SF_EESD_SE_SF_, symObjAddr: 0x6834, symBinAddr: 0x10000E7F4, symSize: 0x12C }
  - { offset: 0xA85E, size: 0x8, addend: 0x0, symName: __ZNSt3__114__unwrap_rangeB8ne180100INS_16reverse_iteratorIPP13BPlusTreeNodeEES5_EENS_4pairIT0_S7_EET_S9_, symObjAddr: 0x6960, symBinAddr: 0x10000E920, symSize: 0x84 }
  - { offset: 0xA97E, size: 0x8, addend: 0x0, symName: __ZNSt3__113__unwrap_iterB8ne180100INS_16reverse_iteratorIPP13BPlusTreeNodeEENS_18__unwrap_iter_implIS5_Lb0EEETnNS_9enable_ifIXsr21is_copy_constructibleIT_EE5valueEiE4typeELi0EEEDTclsrT0_8__unwrapclsr3stdE7declvalIS9_EEEES9_, symObjAddr: 0x6A84, symBinAddr: 0x10000EA44, symSize: 0x44 }
  - { offset: 0xA9C2, size: 0x8, addend: 0x0, symName: __ZNSt3__19make_pairB8ne180100INS_16reverse_iteratorIPP13BPlusTreeNodeEES5_EENS_4pairINS_18__unwrap_ref_decayIT_E4typeENS7_IT0_E4typeEEEOS8_OSB_, symObjAddr: 0x6AC8, symBinAddr: 0x10000EA88, symSize: 0x38 }
  - { offset: 0xAA11, size: 0x8, addend: 0x0, symName: __ZNSt3__114__rewrap_rangeB8ne180100INS_16reverse_iteratorIPP13BPlusTreeNodeEES5_EET_S6_T0_, symObjAddr: 0x6B00, symBinAddr: 0x10000EAC0, symSize: 0x5C }
  - { offset: 0xAA5D, size: 0x8, addend: 0x0, symName: __ZNSt3__113__rewrap_iterB8ne180100INS_16reverse_iteratorIPP13BPlusTreeNodeEES5_NS_18__unwrap_iter_implIS5_Lb0EEEEET_S8_T0_, symObjAddr: 0x6B5C, symBinAddr: 0x10000EB1C, symSize: 0x74 }
  - { offset: 0xAAB2, size: 0x8, addend: 0x0, symName: __ZNSt3__1neB8ne180100IPP13BPlusTreeNodeS3_EEbRKNS_16reverse_iteratorIT_EERKNS4_IT0_EE, symObjAddr: 0x6BD0, symBinAddr: 0x10000EB90, symSize: 0x44 }
  - { offset: 0xBAC5, size: 0x8, addend: 0x0, symName: __ZSt28__throw_bad_array_new_lengthB8ne180100v, symObjAddr: 0x412C, symBinAddr: 0x10000C0EC, symSize: 0x34 }
  - { offset: 0xC3A2, size: 0x8, addend: 0x0, symName: __ZNSt3__16vectorIP9BTreeNodeNS_9allocatorIS2_EEE26__swap_out_circular_bufferERNS_14__split_bufferIS2_RS4_EE, symObjAddr: 0x46E4, symBinAddr: 0x10000C6A4, symSize: 0x110 }
  - { offset: 0xC3F7, size: 0x8, addend: 0x0, symName: __ZNSt3__16vectorIP13BPlusTreeNodeNS_9allocatorIS2_EEE26__swap_out_circular_bufferERNS_14__split_bufferIS2_RS4_EE, symObjAddr: 0x5DC4, symBinAddr: 0x10000DD84, symSize: 0x110 }
  - { offset: 0xC460, size: 0x8, addend: 0x0, symName: __Z9BSTSearchP7BSTNodeiRS0_, symObjAddr: 0x0, symBinAddr: 0x100007FC0, symSize: 0xB4 }
  - { offset: 0xC4B6, size: 0x8, addend: 0x0, symName: __Z9BSTInsertRP7BSTNodei, symObjAddr: 0xB4, symBinAddr: 0x100008074, symSize: 0x100 }
  - { offset: 0xC565, size: 0x8, addend: 0x0, symName: __ZN7BSTNodeC1Ei, symObjAddr: 0x1B4, symBinAddr: 0x100008174, symSize: 0x34 }
  - { offset: 0xC59B, size: 0x8, addend: 0x0, symName: __Z10inorderBSTP7BSTNode, symObjAddr: 0x1E8, symBinAddr: 0x1000081A8, symSize: 0x68 }
  - { offset: 0xC5C3, size: 0x8, addend: 0x0, symName: __Z6heightP7AVLNode, symObjAddr: 0x298, symBinAddr: 0x100008258, symSize: 0x3C }
  - { offset: 0xC5EF, size: 0x8, addend: 0x0, symName: __Z12updateHeightP7AVLNode, symObjAddr: 0x2D4, symBinAddr: 0x100008294, symSize: 0x74 }
  - { offset: 0xC617, size: 0x8, addend: 0x0, symName: __Z13balanceFactorP7AVLNode, symObjAddr: 0x374, symBinAddr: 0x100008334, symSize: 0x68 }
  - { offset: 0xC643, size: 0x8, addend: 0x0, symName: __Z11rotateRightP7AVLNode, symObjAddr: 0x3DC, symBinAddr: 0x10000839C, symSize: 0x60 }
  - { offset: 0xC68B, size: 0x8, addend: 0x0, symName: __Z10rotateLeftP7AVLNode, symObjAddr: 0x43C, symBinAddr: 0x1000083FC, symSize: 0x60 }
  - { offset: 0xC6D3, size: 0x8, addend: 0x0, symName: __Z9AVLInsertP7AVLNodei, symObjAddr: 0x49C, symBinAddr: 0x10000845C, symSize: 0x228 }
  - { offset: 0xC773, size: 0x8, addend: 0x0, symName: __ZN7AVLNodeC1Ei, symObjAddr: 0x6C4, symBinAddr: 0x100008684, symSize: 0x34 }
  - { offset: 0xC7A9, size: 0x8, addend: 0x0, symName: __Z10inorderAVLP7AVLNode, symObjAddr: 0x6F8, symBinAddr: 0x1000086B8, symSize: 0x68 }
  - { offset: 0xC7D3, size: 0x8, addend: 0x0, symName: __Z17BTreeSearchInNodeP9BTreeNodei, symObjAddr: 0x760, symBinAddr: 0x100008720, symSize: 0x12C }
  - { offset: 0xC820, size: 0x8, addend: 0x0, symName: __ZNKSt3__16vectorIiNS_9allocatorIiEEE4sizeB8ne180100Ev, symObjAddr: 0x88C, symBinAddr: 0x10000884C, symSize: 0x28 }
  - { offset: 0xC845, size: 0x8, addend: 0x0, symName: __ZNSt3__16vectorIiNS_9allocatorIiEEEixB8ne180100Em, symObjAddr: 0x8B4, symBinAddr: 0x100008874, symSize: 0x24 }
  - { offset: 0xC89E, size: 0x8, addend: 0x0, symName: __ZNSt3__14pairIbmEC1B8ne180100IbRmTnNS_9enable_ifIXclsr10_CheckArgsE17__enable_implicitIT_T0_EEEiE4typeELi0EEEOS5_OS6_, symObjAddr: 0x8D8, symBinAddr: 0x100008898, symSize: 0x3C }
  - { offset: 0xC8FA, size: 0x8, addend: 0x0, symName: __Z11BTreeSearchP9BTreeNodei, symObjAddr: 0x914, symBinAddr: 0x1000088D4, symSize: 0xE4 }
  - { offset: 0xC96F, size: 0x8, addend: 0x0, symName: __ZNSt3__16vectorIP9BTreeNodeNS_9allocatorIS2_EEEixB8ne180100Em, symObjAddr: 0xA40, symBinAddr: 0x100008A00, symSize: 0x24 }
  - { offset: 0xC9A4, size: 0x8, addend: 0x0, symName: __Z21BPlusTreeSearchInNodeP13BPlusTreeNodei, symObjAddr: 0xA64, symBinAddr: 0x100008A24, symSize: 0x13C }
  - { offset: 0xC9F0, size: 0x8, addend: 0x0, symName: __Z15BPlusTreeSearchP13BPlusTreeNodei, symObjAddr: 0xBA0, symBinAddr: 0x100008B60, symSize: 0x128 }
  - { offset: 0xCA65, size: 0x8, addend: 0x0, symName: __ZNKSt3__16vectorIP13BPlusTreeNodeNS_9allocatorIS2_EEE4sizeB8ne180100Ev, symObjAddr: 0xCC8, symBinAddr: 0x100008C88, symSize: 0x28 }
  - { offset: 0xCA8A, size: 0x8, addend: 0x0, symName: __ZNSt3__16vectorIP13BPlusTreeNodeNS_9allocatorIS2_EEEixB8ne180100Em, symObjAddr: 0xCF0, symBinAddr: 0x100008CB0, symSize: 0x24 }
  - { offset: 0xCAC0, size: 0x8, addend: 0x0, symName: _main, symObjAddr: 0xD14, symBinAddr: 0x100008CD4, symSize: 0xA24 }
  - { offset: 0xCC8F, size: 0x8, addend: 0x0, symName: __ZN9BTreeNodeC1Eb, symObjAddr: 0x1738, symBinAddr: 0x1000096F8, symSize: 0x38 }
  - { offset: 0xCCC7, size: 0x8, addend: 0x0, symName: __ZNSt3__16vectorIiNS_9allocatorIiEEEaSB8ne180100ESt16initializer_listIiE, symObjAddr: 0x1770, symBinAddr: 0x100009730, symSize: 0x60 }
  - { offset: 0xCCFA, size: 0x8, addend: 0x0, symName: __ZNSt3__16vectorIP9BTreeNodeNS_9allocatorIS2_EEE6resizeEm, symObjAddr: 0x17D0, symBinAddr: 0x100009790, symSize: 0x8C }
  - { offset: 0xCD3F, size: 0x8, addend: 0x0, symName: __ZN13BPlusTreeNodeC1Eb, symObjAddr: 0x185C, symBinAddr: 0x10000981C, symSize: 0x38 }
  - { offset: 0xCD76, size: 0x8, addend: 0x0, symName: __ZNSt3__16vectorIP13BPlusTreeNodeNS_9allocatorIS2_EEE6resizeEm, symObjAddr: 0x1894, symBinAddr: 0x100009854, symSize: 0x8C }
  - { offset: 0xCDBA, size: 0x8, addend: 0x0, symName: __ZNSt3__16vectorIiNS_9allocatorIiEEE5beginB8ne180100Ev, symObjAddr: 0x1920, symBinAddr: 0x1000098E0, symSize: 0x30 }
  - { offset: 0xCDE0, size: 0x8, addend: 0x0, symName: __ZNSt3__16vectorIiNS_9allocatorIiEEE3endB8ne180100Ev, symObjAddr: 0x1950, symBinAddr: 0x100009910, symSize: 0x30 }
  - { offset: 0xCE07, size: 0x8, addend: 0x0, symName: __ZNKSt3__111__wrap_iterIPiEdeB8ne180100Ev, symObjAddr: 0x19B0, symBinAddr: 0x100009970, symSize: 0x18 }
  - { offset: 0xCE2C, size: 0x8, addend: 0x0, symName: __ZNSt3__111__wrap_iterIPiEppB8ne180100Ev, symObjAddr: 0x19C8, symBinAddr: 0x100009988, symSize: 0x20 }
  - { offset: 0xCE51, size: 0x8, addend: 0x0, symName: __ZN7BSTNodeC2Ei, symObjAddr: 0x19E8, symBinAddr: 0x1000099A8, symSize: 0x28 }
  - { offset: 0xCE92, size: 0x8, addend: 0x0, symName: __ZNKSt3__16__lessIvvEclB8ne180100IiiEEbRKT_RKT0_, symObjAddr: 0x1A64, symBinAddr: 0x100009A24, symSize: 0x30 }
  - { offset: 0xCEE5, size: 0x8, addend: 0x0, symName: __ZN7AVLNodeC2Ei, symObjAddr: 0x1A94, symBinAddr: 0x100009A54, symSize: 0x30 }
  - { offset: 0xCF1C, size: 0x8, addend: 0x0, symName: __ZNSt3__14pairIbmEC2B8ne180100IbRmTnNS_9enable_ifIXclsr10_CheckArgsE17__enable_implicitIT_T0_EEEiE4typeELi0EEEOS5_OS6_, symObjAddr: 0x1AC4, symBinAddr: 0x100009A84, symSize: 0x38 }
  - { offset: 0xCF79, size: 0x8, addend: 0x0, symName: __ZNSt3__110__get_pairILm0EE3getB8ne180100IbmEEOT_ONS_4pairIS3_T0_EE, symObjAddr: 0x1AFC, symBinAddr: 0x100009ABC, symSize: 0x14 }
  - { offset: 0xCFB4, size: 0x8, addend: 0x0, symName: __ZNSt3__110__get_pairILm1EE3getB8ne180100IbmEEOT0_ONS_4pairIT_S3_EE, symObjAddr: 0x1B10, symBinAddr: 0x100009AD0, symSize: 0x18 }
  - { offset: 0xCFEA, size: 0x8, addend: 0x0, symName: __ZN9BTreeNodeC2Eb, symObjAddr: 0x1B28, symBinAddr: 0x100009AE8, symSize: 0x4C }
  - { offset: 0xD022, size: 0x8, addend: 0x0, symName: __ZNSt3__16vectorIiNS_9allocatorIiEEEC1B8ne180100Ev, symObjAddr: 0x1B74, symBinAddr: 0x100009B34, symSize: 0x2C }
  - { offset: 0xD04B, size: 0x8, addend: 0x0, symName: __ZNSt3__16vectorIP9BTreeNodeNS_9allocatorIS2_EEEC1B8ne180100Ev, symObjAddr: 0x1BA0, symBinAddr: 0x100009B60, symSize: 0x2C }
  - { offset: 0xD074, size: 0x8, addend: 0x0, symName: __ZNSt3__16vectorIiNS_9allocatorIiEEEC2B8ne180100Ev, symObjAddr: 0x1BCC, symBinAddr: 0x100009B8C, symSize: 0x4C }
  - { offset: 0xD0A7, size: 0x8, addend: 0x0, symName: __ZNSt3__117__compressed_pairIPiNS_9allocatorIiEEEC1B8ne180100IDnNS_18__default_init_tagEEEOT_OT0_, symObjAddr: 0x1C18, symBinAddr: 0x100009BD8, symSize: 0x3C }
  - { offset: 0xD0FE, size: 0x8, addend: 0x0, symName: __ZNSt3__117__compressed_pairIPiNS_9allocatorIiEEEC2B8ne180100IDnNS_18__default_init_tagEEEOT_OT0_, symObjAddr: 0x1C64, symBinAddr: 0x100009C24, symSize: 0x40 }
  - { offset: 0xD155, size: 0x8, addend: 0x0, symName: __ZNSt3__122__compressed_pair_elemIPiLi0ELb0EEC2B8ne180100IDnvEEOT_, symObjAddr: 0x1CA4, symBinAddr: 0x100009C64, symSize: 0x1C }
  - { offset: 0xD196, size: 0x8, addend: 0x0, symName: __ZNSt3__122__compressed_pair_elemINS_9allocatorIiEELi1ELb1EEC2B8ne180100ENS_18__default_init_tagE, symObjAddr: 0x1CC0, symBinAddr: 0x100009C80, symSize: 0x2C }
  - { offset: 0xD1C9, size: 0x8, addend: 0x0, symName: __ZNSt3__19allocatorIiEC2B8ne180100Ev, symObjAddr: 0x1CEC, symBinAddr: 0x100009CAC, symSize: 0x2C }
  - { offset: 0xD1F2, size: 0x8, addend: 0x0, symName: __ZNSt3__116__non_trivial_ifILb1ENS_9allocatorIiEEEC2B8ne180100Ev, symObjAddr: 0x1D18, symBinAddr: 0x100009CD8, symSize: 0x14 }
  - { offset: 0xD21B, size: 0x8, addend: 0x0, symName: __ZNSt3__16vectorIP9BTreeNodeNS_9allocatorIS2_EEEC2B8ne180100Ev, symObjAddr: 0x1D2C, symBinAddr: 0x100009CEC, symSize: 0x4C }
  - { offset: 0xD244, size: 0x8, addend: 0x0, symName: __ZNSt3__117__compressed_pairIPP9BTreeNodeNS_9allocatorIS2_EEEC1B8ne180100IDnNS_18__default_init_tagEEEOT_OT0_, symObjAddr: 0x1D78, symBinAddr: 0x100009D38, symSize: 0x3C }
  - { offset: 0xD29B, size: 0x8, addend: 0x0, symName: __ZNSt3__117__compressed_pairIPP9BTreeNodeNS_9allocatorIS2_EEEC2B8ne180100IDnNS_18__default_init_tagEEEOT_OT0_, symObjAddr: 0x1DB4, symBinAddr: 0x100009D74, symSize: 0x40 }
  - { offset: 0xD2F2, size: 0x8, addend: 0x0, symName: __ZNSt3__122__compressed_pair_elemIPP9BTreeNodeLi0ELb0EEC2B8ne180100IDnvEEOT_, symObjAddr: 0x1DF4, symBinAddr: 0x100009DB4, symSize: 0x1C }
  - { offset: 0xD333, size: 0x8, addend: 0x0, symName: __ZNSt3__122__compressed_pair_elemINS_9allocatorIP9BTreeNodeEELi1ELb1EEC2B8ne180100ENS_18__default_init_tagE, symObjAddr: 0x1E10, symBinAddr: 0x100009DD0, symSize: 0x2C }
  - { offset: 0xD366, size: 0x8, addend: 0x0, symName: __ZNSt3__19allocatorIP9BTreeNodeEC2B8ne180100Ev, symObjAddr: 0x1E3C, symBinAddr: 0x100009DFC, symSize: 0x2C }
  - { offset: 0xD38F, size: 0x8, addend: 0x0, symName: __ZNSt3__116__non_trivial_ifILb1ENS_9allocatorIP9BTreeNodeEEEC2B8ne180100Ev, symObjAddr: 0x1E68, symBinAddr: 0x100009E28, symSize: 0x14 }
  - { offset: 0xD3B8, size: 0x8, addend: 0x0, symName: __ZN13BPlusTreeNodeC2Eb, symObjAddr: 0x1E7C, symBinAddr: 0x100009E3C, symSize: 0x50 }
  - { offset: 0xD3F0, size: 0x8, addend: 0x0, symName: __ZNSt3__16vectorIP13BPlusTreeNodeNS_9allocatorIS2_EEEC1B8ne180100Ev, symObjAddr: 0x1ECC, symBinAddr: 0x100009E8C, symSize: 0x2C }
  - { offset: 0xD419, size: 0x8, addend: 0x0, symName: __ZNSt3__16vectorIP13BPlusTreeNodeNS_9allocatorIS2_EEEC2B8ne180100Ev, symObjAddr: 0x1EF8, symBinAddr: 0x100009EB8, symSize: 0x4C }
  - { offset: 0xD442, size: 0x8, addend: 0x0, symName: __ZNSt3__117__compressed_pairIPP13BPlusTreeNodeNS_9allocatorIS2_EEEC1B8ne180100IDnNS_18__default_init_tagEEEOT_OT0_, symObjAddr: 0x1F44, symBinAddr: 0x100009F04, symSize: 0x3C }
  - { offset: 0xD499, size: 0x8, addend: 0x0, symName: __ZNSt3__117__compressed_pairIPP13BPlusTreeNodeNS_9allocatorIS2_EEEC2B8ne180100IDnNS_18__default_init_tagEEEOT_OT0_, symObjAddr: 0x1F80, symBinAddr: 0x100009F40, symSize: 0x40 }
  - { offset: 0xD4F0, size: 0x8, addend: 0x0, symName: __ZNSt3__122__compressed_pair_elemIPP13BPlusTreeNodeLi0ELb0EEC2B8ne180100IDnvEEOT_, symObjAddr: 0x1FC0, symBinAddr: 0x100009F80, symSize: 0x1C }
  - { offset: 0xD531, size: 0x8, addend: 0x0, symName: __ZNSt3__122__compressed_pair_elemINS_9allocatorIP13BPlusTreeNodeEELi1ELb1EEC2B8ne180100ENS_18__default_init_tagE, symObjAddr: 0x1FDC, symBinAddr: 0x100009F9C, symSize: 0x2C }
  - { offset: 0xD564, size: 0x8, addend: 0x0, symName: __ZNSt3__19allocatorIP13BPlusTreeNodeEC2B8ne180100Ev, symObjAddr: 0x2008, symBinAddr: 0x100009FC8, symSize: 0x2C }
  - { offset: 0xD58D, size: 0x8, addend: 0x0, symName: __ZNSt3__116__non_trivial_ifILb1ENS_9allocatorIP13BPlusTreeNodeEEEC2B8ne180100Ev, symObjAddr: 0x2034, symBinAddr: 0x100009FF4, symSize: 0x14 }
  - { offset: 0xD5B6, size: 0x8, addend: 0x0, symName: __ZNKSt3__111__wrap_iterIPiE4baseB8ne180100Ev, symObjAddr: 0x208C, symBinAddr: 0x10000A04C, symSize: 0x18 }
  - { offset: 0xD5DB, size: 0x8, addend: 0x0, symName: __ZNSt3__111char_traitsIcE6lengthB8ne180100EPKc, symObjAddr: 0x228C, symBinAddr: 0x10000A24C, symSize: 0x34 }
  - { offset: 0xD61C, size: 0x8, addend: 0x0, symName: __ZNKSt3__113basic_ostreamIcNS_11char_traitsIcEEE6sentrycvbB8ne180100Ev, symObjAddr: 0x22C0, symBinAddr: 0x10000A280, symSize: 0x1C }
  - { offset: 0xD641, size: 0x8, addend: 0x0, symName: __ZNSt3__119ostreambuf_iteratorIcNS_11char_traitsIcEEEC1B8ne180100ERNS_13basic_ostreamIcS2_EE, symObjAddr: 0x24F0, symBinAddr: 0x10000A4B0, symSize: 0x34 }
  - { offset: 0xD678, size: 0x8, addend: 0x0, symName: __ZNKSt3__18ios_base5flagsB8ne180100Ev, symObjAddr: 0x2524, symBinAddr: 0x10000A4E4, symSize: 0x18 }
  - { offset: 0xD69F, size: 0x8, addend: 0x0, symName: __ZNKSt3__19basic_iosIcNS_11char_traitsIcEEE4fillB8ne180100Ev, symObjAddr: 0x253C, symBinAddr: 0x10000A4FC, symSize: 0x64 }
  - { offset: 0xD6C4, size: 0x8, addend: 0x0, symName: __ZNKSt3__119ostreambuf_iteratorIcNS_11char_traitsIcEEE6failedB8ne180100Ev, symObjAddr: 0x25A0, symBinAddr: 0x10000A560, symSize: 0x20 }
  - { offset: 0xD6E9, size: 0x8, addend: 0x0, symName: __ZNSt3__19basic_iosIcNS_11char_traitsIcEEE8setstateB8ne180100Ej, symObjAddr: 0x25C0, symBinAddr: 0x10000A580, symSize: 0x2C }
  - { offset: 0xD71D, size: 0x8, addend: 0x0, symName: __ZNKSt3__18ios_base5widthB8ne180100Ev, symObjAddr: 0x25EC, symBinAddr: 0x10000A5AC, symSize: 0x18 }
  - { offset: 0xD744, size: 0x8, addend: 0x0, symName: __ZNSt3__115basic_streambufIcNS_11char_traitsIcEEE5sputnB8ne180100EPKcl, symObjAddr: 0x2604, symBinAddr: 0x10000A5C4, symSize: 0x3C }
  - { offset: 0xD785, size: 0x8, addend: 0x0, symName: __ZNSt3__112basic_stringIcNS_11char_traitsIcEENS_9allocatorIcEEEC1B8ne180100Emc, symObjAddr: 0x2640, symBinAddr: 0x10000A600, symSize: 0x3C }
  - { offset: 0xD7CC, size: 0x8, addend: 0x0, symName: __ZNSt3__112basic_stringIcNS_11char_traitsIcEENS_9allocatorIcEEE4dataB8ne180100Ev, symObjAddr: 0x267C, symBinAddr: 0x10000A63C, symSize: 0x28 }
  - { offset: 0xD7F1, size: 0x8, addend: 0x0, symName: __ZNSt3__18ios_base5widthB8ne180100El, symObjAddr: 0x26A4, symBinAddr: 0x10000A664, symSize: 0x2C }
  - { offset: 0xD836, size: 0x8, addend: 0x0, symName: __ZNSt3__112basic_stringIcNS_11char_traitsIcEENS_9allocatorIcEEEC2B8ne180100Emc, symObjAddr: 0x26D0, symBinAddr: 0x10000A690, symSize: 0x4C }
  - { offset: 0xD87D, size: 0x8, addend: 0x0, symName: __ZNSt3__117__compressed_pairINS_12basic_stringIcNS_11char_traitsIcEENS_9allocatorIcEEE5__repES5_EC1B8ne180100INS_18__default_init_tagESA_EEOT_OT0_, symObjAddr: 0x271C, symBinAddr: 0x10000A6DC, symSize: 0x3C }
  - { offset: 0xD8D4, size: 0x8, addend: 0x0, symName: __ZNSt3__117__compressed_pairINS_12basic_stringIcNS_11char_traitsIcEENS_9allocatorIcEEE5__repES5_EC2B8ne180100INS_18__default_init_tagESA_EEOT_OT0_, symObjAddr: 0x2758, symBinAddr: 0x10000A718, symSize: 0x3C }
  - { offset: 0xD92B, size: 0x8, addend: 0x0, symName: __ZNSt3__122__compressed_pair_elemINS_12basic_stringIcNS_11char_traitsIcEENS_9allocatorIcEEE5__repELi0ELb0EEC2B8ne180100ENS_18__default_init_tagE, symObjAddr: 0x2794, symBinAddr: 0x10000A754, symSize: 0x14 }
  - { offset: 0xD95E, size: 0x8, addend: 0x0, symName: __ZNSt3__122__compressed_pair_elemINS_9allocatorIcEELi1ELb1EEC2B8ne180100ENS_18__default_init_tagE, symObjAddr: 0x27A8, symBinAddr: 0x10000A768, symSize: 0x2C }
  - { offset: 0xD991, size: 0x8, addend: 0x0, symName: __ZNSt3__19allocatorIcEC2B8ne180100Ev, symObjAddr: 0x27D4, symBinAddr: 0x10000A794, symSize: 0x2C }
  - { offset: 0xD9BA, size: 0x8, addend: 0x0, symName: __ZNSt3__116__non_trivial_ifILb1ENS_9allocatorIcEEEC2B8ne180100Ev, symObjAddr: 0x2800, symBinAddr: 0x10000A7C0, symSize: 0x14 }
  - { offset: 0xD9E3, size: 0x8, addend: 0x0, symName: __ZNSt3__112basic_stringIcNS_11char_traitsIcEENS_9allocatorIcEEE13__get_pointerB8ne180100Ev, symObjAddr: 0x2828, symBinAddr: 0x10000A7E8, symSize: 0x54 }
  - { offset: 0xDA08, size: 0x8, addend: 0x0, symName: __ZNKSt3__112basic_stringIcNS_11char_traitsIcEENS_9allocatorIcEEE9__is_longB8ne180100Ev, symObjAddr: 0x287C, symBinAddr: 0x10000A83C, symSize: 0x34 }
  - { offset: 0xDA2D, size: 0x8, addend: 0x0, symName: __ZNSt3__112basic_stringIcNS_11char_traitsIcEENS_9allocatorIcEEE18__get_long_pointerB8ne180100Ev, symObjAddr: 0x28B0, symBinAddr: 0x10000A870, symSize: 0x28 }
  - { offset: 0xDA52, size: 0x8, addend: 0x0, symName: __ZNSt3__112basic_stringIcNS_11char_traitsIcEENS_9allocatorIcEEE19__get_short_pointerB8ne180100Ev, symObjAddr: 0x28D8, symBinAddr: 0x10000A898, symSize: 0x28 }
  - { offset: 0xDA77, size: 0x8, addend: 0x0, symName: __ZNKSt3__117__compressed_pairINS_12basic_stringIcNS_11char_traitsIcEENS_9allocatorIcEEE5__repES5_E5firstB8ne180100Ev, symObjAddr: 0x2900, symBinAddr: 0x10000A8C0, symSize: 0x24 }
  - { offset: 0xDA9C, size: 0x8, addend: 0x0, symName: __ZNKSt3__122__compressed_pair_elemINS_12basic_stringIcNS_11char_traitsIcEENS_9allocatorIcEEE5__repELi0ELb0EE5__getB8ne180100Ev, symObjAddr: 0x2924, symBinAddr: 0x10000A8E4, symSize: 0x14 }
  - { offset: 0xDAC1, size: 0x8, addend: 0x0, symName: __ZNSt3__117__compressed_pairINS_12basic_stringIcNS_11char_traitsIcEENS_9allocatorIcEEE5__repES5_E5firstB8ne180100Ev, symObjAddr: 0x2938, symBinAddr: 0x10000A8F8, symSize: 0x24 }
  - { offset: 0xDAE6, size: 0x8, addend: 0x0, symName: __ZNSt3__122__compressed_pair_elemINS_12basic_stringIcNS_11char_traitsIcEENS_9allocatorIcEEE5__repELi0ELb0EE5__getB8ne180100Ev, symObjAddr: 0x295C, symBinAddr: 0x10000A91C, symSize: 0x14 }
  - { offset: 0xDB0B, size: 0x8, addend: 0x0, symName: __ZNSt3__114pointer_traitsIPcE10pointer_toB8ne180100ERc, symObjAddr: 0x2970, symBinAddr: 0x10000A930, symSize: 0x14 }
  - { offset: 0xDB2E, size: 0x8, addend: 0x0, symName: __ZNSt3__119ostreambuf_iteratorIcNS_11char_traitsIcEEEC2B8ne180100ERNS_13basic_ostreamIcS2_EE, symObjAddr: 0x2984, symBinAddr: 0x10000A944, symSize: 0x54 }
  - { offset: 0xDB65, size: 0x8, addend: 0x0, symName: __ZNKSt3__19basic_iosIcNS_11char_traitsIcEEE5rdbufB8ne180100Ev, symObjAddr: 0x29D8, symBinAddr: 0x10000A998, symSize: 0x24 }
  - { offset: 0xDB8A, size: 0x8, addend: 0x0, symName: __ZNKSt3__18ios_base5rdbufB8ne180100Ev, symObjAddr: 0x29FC, symBinAddr: 0x10000A9BC, symSize: 0x18 }
  - { offset: 0xDBAF, size: 0x8, addend: 0x0, symName: __ZNSt3__111char_traitsIcE11eq_int_typeB8ne180100Eii, symObjAddr: 0x2A14, symBinAddr: 0x10000A9D4, symSize: 0x24 }
  - { offset: 0xDBE2, size: 0x8, addend: 0x0, symName: __ZNSt3__111char_traitsIcE3eofB8ne180100Ev, symObjAddr: 0x2A38, symBinAddr: 0x10000A9F8, symSize: 0x8 }
  - { offset: 0xDBF6, size: 0x8, addend: 0x0, symName: __ZNKSt3__19basic_iosIcNS_11char_traitsIcEEE5widenB8ne180100Ec, symObjAddr: 0x2A40, symBinAddr: 0x10000AA00, symSize: 0x84 }
  - { offset: 0xDC67, size: 0x8, addend: 0x0, symName: __ZNKSt3__15ctypeIcE5widenB8ne180100Ec, symObjAddr: 0x2AF0, symBinAddr: 0x10000AAB0, symSize: 0x38 }
  - { offset: 0xDC9A, size: 0x8, addend: 0x0, symName: __ZNSt3__18ios_base8setstateB8ne180100Ej, symObjAddr: 0x2B28, symBinAddr: 0x10000AAE8, symSize: 0x34 }
  - { offset: 0xDCD0, size: 0x8, addend: 0x0, symName: __ZNSt3__16vectorIiNS_9allocatorIiEEE6assignIPKiTnNS_9enable_ifIXaasr31__has_forward_iterator_categoryIT_EE5valuesr16is_constructibleIiNS_15iterator_traitsIS8_E9referenceEEE5valueEiE4typeELi0EEEvS8_S8_, symObjAddr: 0x2B80, symBinAddr: 0x10000AB40, symSize: 0x5C }
  - { offset: 0xDD22, size: 0x8, addend: 0x0, symName: __ZNKSt16initializer_listIiE5beginB8ne180100Ev, symObjAddr: 0x2BDC, symBinAddr: 0x10000AB9C, symSize: 0x18 }
  - { offset: 0xDD47, size: 0x8, addend: 0x0, symName: __ZNKSt16initializer_listIiE3endB8ne180100Ev, symObjAddr: 0x2BF4, symBinAddr: 0x10000ABB4, symSize: 0x20 }
  - { offset: 0xDD6C, size: 0x8, addend: 0x0, symName: __ZNSt3__16vectorIiNS_9allocatorIiEEE18__assign_with_sizeB8ne180100IPKiS6_EEvT_T0_l, symObjAddr: 0x2C14, symBinAddr: 0x10000ABD4, symSize: 0x15C }
  - { offset: 0xDE19, size: 0x8, addend: 0x0, symName: __ZNKSt3__16vectorIiNS_9allocatorIiEEE8capacityB8ne180100Ev, symObjAddr: 0x2D9C, symBinAddr: 0x10000AD5C, symSize: 0x40 }
  - { offset: 0xDE3E, size: 0x8, addend: 0x0, symName: __ZNSt3__16vectorIiNS_9allocatorIiEEE18__construct_at_endIPKiS6_EEvT_T0_m, symObjAddr: 0x2E50, symBinAddr: 0x10000AE10, symSize: 0x8C }
  - { offset: 0xDEB1, size: 0x8, addend: 0x0, symName: __ZNSt3__16vectorIiNS_9allocatorIiEEE17__destruct_at_endB8ne180100EPi, symObjAddr: 0x2F20, symBinAddr: 0x10000AEE0, symSize: 0x4C }
  - { offset: 0xDEF3, size: 0x8, addend: 0x0, symName: __ZNSt3__16vectorIiNS_9allocatorIiEEE13__vdeallocateEv, symObjAddr: 0x2F6C, symBinAddr: 0x10000AF2C, symSize: 0x8C }
  - { offset: 0xDF1A, size: 0x8, addend: 0x0, symName: __ZNSt3__16vectorIiNS_9allocatorIiEEE11__vallocateB8ne180100Em, symObjAddr: 0x2FF8, symBinAddr: 0x10000AFB8, symSize: 0xA8 }
  - { offset: 0xDF5C, size: 0x8, addend: 0x0, symName: __ZNKSt3__16vectorIiNS_9allocatorIiEEE11__recommendB8ne180100Em, symObjAddr: 0x30A0, symBinAddr: 0x10000B060, symSize: 0xAC }
  - { offset: 0xDFB0, size: 0x8, addend: 0x0, symName: __ZNKSt3__16vectorIiNS_9allocatorIiEEE9__end_capB8ne180100Ev, symObjAddr: 0x314C, symBinAddr: 0x10000B10C, symSize: 0x28 }
  - { offset: 0xDFD5, size: 0x8, addend: 0x0, symName: __ZNKSt3__117__compressed_pairIPiNS_9allocatorIiEEE5firstB8ne180100Ev, symObjAddr: 0x3174, symBinAddr: 0x10000B134, symSize: 0x24 }
  - { offset: 0xDFFA, size: 0x8, addend: 0x0, symName: __ZNKSt3__122__compressed_pair_elemIPiLi0ELb0EE5__getB8ne180100Ev, symObjAddr: 0x3198, symBinAddr: 0x10000B158, symSize: 0x14 }
  - { offset: 0xE038, size: 0x8, addend: 0x0, symName: __ZNSt3__16vectorIiNS_9allocatorIiEEE21_ConstructTransactionC1B8ne180100ERS3_m, symObjAddr: 0x3220, symBinAddr: 0x10000B1E0, symSize: 0x3C }
  - { offset: 0xE07F, size: 0x8, addend: 0x0, symName: __ZNSt3__16vectorIiNS_9allocatorIiEEE7__allocB8ne180100Ev, symObjAddr: 0x32DC, symBinAddr: 0x10000B29C, symSize: 0x28 }
  - { offset: 0xE0A4, size: 0x8, addend: 0x0, symName: __ZNSt3__16vectorIiNS_9allocatorIiEEE21_ConstructTransactionD1B8ne180100Ev, symObjAddr: 0x3304, symBinAddr: 0x10000B2C4, symSize: 0x2C }
  - { offset: 0xE0CD, size: 0x8, addend: 0x0, symName: __ZNSt3__16vectorIiNS_9allocatorIiEEE21_ConstructTransactionC2B8ne180100ERS3_m, symObjAddr: 0x3330, symBinAddr: 0x10000B2F0, symSize: 0x44 }
  - { offset: 0xE132, size: 0x8, addend: 0x0, symName: __ZNSt3__14pairIPKiS2_EC1B8ne180100IS2_S2_TnNS_9enable_ifIXclsr10_CheckArgsE17__enable_implicitIT_T0_EEEiE4typeELi0EEEOS6_OS7_, symObjAddr: 0x34C8, symBinAddr: 0x10000B488, symSize: 0x3C }
  - { offset: 0xE18F, size: 0x8, addend: 0x0, symName: __ZNSt3__14pairIPKiS2_EC2B8ne180100IS2_S2_TnNS_9enable_ifIXclsr10_CheckArgsE17__enable_implicitIT_T0_EEEiE4typeELi0EEEOS6_OS7_, symObjAddr: 0x3504, symBinAddr: 0x10000B4C4, symSize: 0x34 }
  - { offset: 0xE1EC, size: 0x8, addend: 0x0, symName: __ZNSt3__118__unwrap_iter_implIPKiLb1EE8__unwrapB8ne180100ES2_, symObjAddr: 0x3538, symBinAddr: 0x10000B4F8, symSize: 0x24 }
  - { offset: 0xE20F, size: 0x8, addend: 0x0, symName: __ZNSt3__118__unwrap_iter_implIPiLb1EE8__unwrapB8ne180100ES1_, symObjAddr: 0x3570, symBinAddr: 0x10000B530, symSize: 0x24 }
  - { offset: 0xE232, size: 0x8, addend: 0x0, symName: __ZNSt3__118__unwrap_iter_implIPiLb1EE8__rewrapB8ne180100ES1_S1_, symObjAddr: 0x35A8, symBinAddr: 0x10000B568, symSize: 0x50 }
  - { offset: 0xE263, size: 0x8, addend: 0x0, symName: __ZNSt3__117__compressed_pairIPiNS_9allocatorIiEEE6secondB8ne180100Ev, symObjAddr: 0x35F8, symBinAddr: 0x10000B5B8, symSize: 0x24 }
  - { offset: 0xE288, size: 0x8, addend: 0x0, symName: __ZNSt3__122__compressed_pair_elemINS_9allocatorIiEELi1ELb1EE5__getB8ne180100Ev, symObjAddr: 0x361C, symBinAddr: 0x10000B5DC, symSize: 0x14 }
  - { offset: 0xE2AD, size: 0x8, addend: 0x0, symName: __ZNSt3__16vectorIiNS_9allocatorIiEEE21_ConstructTransactionD2B8ne180100Ev, symObjAddr: 0x3630, symBinAddr: 0x10000B5F0, symSize: 0x20 }
  - { offset: 0xE2F9, size: 0x8, addend: 0x0, symName: __ZNKSt3__114__copy_trivialclB8ne180100IKiiTnNS_9enable_ifIXsr38__can_lower_copy_assignment_to_memmoveIT_T0_EE5valueEiE4typeELi0EEENS_4pairIPS4_PS5_EES9_S9_SA_, symObjAddr: 0x3748, symBinAddr: 0x10000B708, symSize: 0x48 }
  - { offset: 0xE36A, size: 0x8, addend: 0x0, symName: __ZNSt3__14pairIPKiPiEC1B8ne180100IRS2_S3_TnNS_9enable_ifIXclsr10_CheckArgsE17__enable_implicitIT_T0_EEEiE4typeELi0EEEOS8_OS9_, symObjAddr: 0x390C, symBinAddr: 0x10000B8CC, symSize: 0x3C }
  - { offset: 0xE3C7, size: 0x8, addend: 0x0, symName: __ZNSt3__14pairIPKiPiEC2B8ne180100IRS2_S3_TnNS_9enable_ifIXclsr10_CheckArgsE17__enable_implicitIT_T0_EEEiE4typeELi0EEEOS8_OS9_, symObjAddr: 0x3948, symBinAddr: 0x10000B908, symSize: 0x34 }
  - { offset: 0xE424, size: 0x8, addend: 0x0, symName: __ZNSt3__14pairIPKiPiEC1B8ne180100IS2_S3_TnNS_9enable_ifIXclsr10_CheckArgsE17__enable_implicitIT_T0_EEEiE4typeELi0EEEOS7_OS8_, symObjAddr: 0x397C, symBinAddr: 0x10000B93C, symSize: 0x3C }
  - { offset: 0xE481, size: 0x8, addend: 0x0, symName: __ZNSt3__14pairIPKiPiEC2B8ne180100IS2_S3_TnNS_9enable_ifIXclsr10_CheckArgsE17__enable_implicitIT_T0_EEEiE4typeELi0EEEOS7_OS8_, symObjAddr: 0x39B8, symBinAddr: 0x10000B978, symSize: 0x34 }
  - { offset: 0xE4DE, size: 0x8, addend: 0x0, symName: __ZNSt3__118__unwrap_iter_implIPKiLb1EE8__rewrapB8ne180100ES2_S2_, symObjAddr: 0x3A28, symBinAddr: 0x10000B9E8, symSize: 0x50 }
  - { offset: 0xE50F, size: 0x8, addend: 0x0, symName: __ZNSt3__16vectorIiNS_9allocatorIiEEE22__base_destruct_at_endB8ne180100EPi, symObjAddr: 0x3A78, symBinAddr: 0x10000BA38, symSize: 0x88 }
  - { offset: 0xE552, size: 0x8, addend: 0x0, symName: __ZNKSt3__16vectorIiNS_9allocatorIiEEE17__annotate_shrinkB8ne180100Em, symObjAddr: 0x3B00, symBinAddr: 0x10000BAC0, symSize: 0x14 }
  - { offset: 0xE586, size: 0x8, addend: 0x0, symName: __ZNSt3__116allocator_traitsINS_9allocatorIiEEE7destroyB8ne180100IivEEvRS2_PT_, symObjAddr: 0x3B14, symBinAddr: 0x10000BAD4, symSize: 0x2C }
  - { offset: 0xE5C3, size: 0x8, addend: 0x0, symName: __ZNSt3__19allocatorIiE7destroyB8ne180100EPi, symObjAddr: 0x3B40, symBinAddr: 0x10000BB00, symSize: 0x14 }
  - { offset: 0xE5F6, size: 0x8, addend: 0x0, symName: __ZNSt3__16vectorIiNS_9allocatorIiEEE5clearB8ne180100Ev, symObjAddr: 0x3B54, symBinAddr: 0x10000BB14, symSize: 0x44 }
  - { offset: 0xE62A, size: 0x8, addend: 0x0, symName: __ZNKSt3__16vectorIiNS_9allocatorIiEEE17__annotate_deleteB8ne180100Ev, symObjAddr: 0x3B98, symBinAddr: 0x10000BB58, symSize: 0x10 }
  - { offset: 0xE64F, size: 0x8, addend: 0x0, symName: __ZNSt3__116allocator_traitsINS_9allocatorIiEEE10deallocateB8ne180100ERS2_Pim, symObjAddr: 0x3BA8, symBinAddr: 0x10000BB68, symSize: 0x34 }
  - { offset: 0xE691, size: 0x8, addend: 0x0, symName: __ZNSt3__16vectorIiNS_9allocatorIiEEE9__end_capB8ne180100Ev, symObjAddr: 0x3BDC, symBinAddr: 0x10000BB9C, symSize: 0x28 }
  - { offset: 0xE6B6, size: 0x8, addend: 0x0, symName: __ZNSt3__16vectorIiNS_9allocatorIiEEE7__clearB8ne180100Ev, symObjAddr: 0x3C04, symBinAddr: 0x10000BBC4, symSize: 0x28 }
  - { offset: 0xE6DB, size: 0x8, addend: 0x0, symName: __ZNSt3__19allocatorIiE10deallocateB8ne180100EPim, symObjAddr: 0x3C2C, symBinAddr: 0x10000BBEC, symSize: 0x40 }
  - { offset: 0xE71C, size: 0x8, addend: 0x0, symName: __ZNSt3__117__compressed_pairIPiNS_9allocatorIiEEE5firstB8ne180100Ev, symObjAddr: 0x3D90, symBinAddr: 0x10000BD50, symSize: 0x24 }
  - { offset: 0xE741, size: 0x8, addend: 0x0, symName: __ZNSt3__122__compressed_pair_elemIPiLi0ELb0EE5__getB8ne180100Ev, symObjAddr: 0x3DB4, symBinAddr: 0x10000BD74, symSize: 0x14 }
  - { offset: 0xE765, size: 0x8, addend: 0x0, symName: __ZNKSt3__16vectorIiNS_9allocatorIiEEE8max_sizeEv, symObjAddr: 0x3DC8, symBinAddr: 0x10000BD88, symSize: 0x60 }
  - { offset: 0xE78C, size: 0x8, addend: 0x0, symName: __ZNKSt3__16vectorIiNS_9allocatorIiEEE20__throw_length_errorB8ne180100Ev, symObjAddr: 0x3E28, symBinAddr: 0x10000BDE8, symSize: 0x1C }
  - { offset: 0xE7B1, size: 0x8, addend: 0x0, symName: __ZNKSt3__16vectorIiNS_9allocatorIiEEE14__annotate_newB8ne180100Em, symObjAddr: 0x3E84, symBinAddr: 0x10000BE44, symSize: 0x14 }
  - { offset: 0xE7EF, size: 0x8, addend: 0x0, symName: __ZNSt3__116allocator_traitsINS_9allocatorIiEEE8max_sizeB8ne180100IS2_vEEmRKS2_, symObjAddr: 0x3EC4, symBinAddr: 0x10000BE84, symSize: 0x24 }
  - { offset: 0xE81D, size: 0x8, addend: 0x0, symName: __ZNKSt3__16vectorIiNS_9allocatorIiEEE7__allocB8ne180100Ev, symObjAddr: 0x3EE8, symBinAddr: 0x10000BEA8, symSize: 0x28 }
  - { offset: 0xE842, size: 0x8, addend: 0x0, symName: __ZNSt3__114numeric_limitsIlE3maxB8ne180100Ev, symObjAddr: 0x3F10, symBinAddr: 0x10000BED0, symSize: 0x14 }
  - { offset: 0xE860, size: 0x8, addend: 0x0, symName: __ZNKSt3__16__lessIvvEclB8ne180100ImmEEbRKT_RKT0_, symObjAddr: 0x3F78, symBinAddr: 0x10000BF38, symSize: 0x30 }
  - { offset: 0xE8B3, size: 0x8, addend: 0x0, symName: __ZNKSt3__19allocatorIiE8max_sizeB8ne180100Ev, symObjAddr: 0x3FA8, symBinAddr: 0x10000BF68, symSize: 0x14 }
  - { offset: 0xE8D8, size: 0x8, addend: 0x0, symName: __ZNKSt3__117__compressed_pairIPiNS_9allocatorIiEEE6secondB8ne180100Ev, symObjAddr: 0x3FBC, symBinAddr: 0x10000BF7C, symSize: 0x24 }
  - { offset: 0xE8FD, size: 0x8, addend: 0x0, symName: __ZNKSt3__122__compressed_pair_elemINS_9allocatorIiEELi1ELb1EE5__getB8ne180100Ev, symObjAddr: 0x3FE0, symBinAddr: 0x10000BFA0, symSize: 0x14 }
  - { offset: 0xE922, size: 0x8, addend: 0x0, symName: __ZNSt3__123__libcpp_numeric_limitsIlLb1EE3maxB8ne180100Ev, symObjAddr: 0x3FF4, symBinAddr: 0x10000BFB4, symSize: 0x8 }
  - { offset: 0xE936, size: 0x8, addend: 0x0, symName: __ZNSt12length_errorC1B8ne180100EPKc, symObjAddr: 0x4060, symBinAddr: 0x10000C020, symSize: 0x34 }
  - { offset: 0xE96D, size: 0x8, addend: 0x0, symName: __ZNSt12length_errorC2B8ne180100EPKc, symObjAddr: 0x4094, symBinAddr: 0x10000C054, symSize: 0x44 }
  - { offset: 0xE9A4, size: 0x8, addend: 0x0, symName: __ZNSt3__19allocatorIiE8allocateB8ne180100Em, symObjAddr: 0x40D8, symBinAddr: 0x10000C098, symSize: 0x54 }
  - { offset: 0xE9D7, size: 0x8, addend: 0x0, symName: __ZNKSt3__16vectorIP9BTreeNodeNS_9allocatorIS2_EEE4sizeB8ne180100Ev, symObjAddr: 0x42B8, symBinAddr: 0x10000C278, symSize: 0x28 }
  - { offset: 0xE9FB, size: 0x8, addend: 0x0, symName: __ZNSt3__16vectorIP9BTreeNodeNS_9allocatorIS2_EEE8__appendEm, symObjAddr: 0x42E0, symBinAddr: 0x10000C2A0, symSize: 0x104 }
  - { offset: 0xEA55, size: 0x8, addend: 0x0, symName: __ZNSt3__16vectorIP9BTreeNodeNS_9allocatorIS2_EEE17__destruct_at_endB8ne180100EPS2_, symObjAddr: 0x43E4, symBinAddr: 0x10000C3A4, symSize: 0x4C }
  - { offset: 0xEA98, size: 0x8, addend: 0x0, symName: __ZNSt3__16vectorIP9BTreeNodeNS_9allocatorIS2_EEE9__end_capB8ne180100Ev, symObjAddr: 0x4430, symBinAddr: 0x10000C3F0, symSize: 0x28 }
  - { offset: 0xEABC, size: 0x8, addend: 0x0, symName: __ZNSt3__16vectorIP9BTreeNodeNS_9allocatorIS2_EEE18__construct_at_endEm, symObjAddr: 0x4458, symBinAddr: 0x10000C418, symSize: 0xC4 }
  - { offset: 0xEB2D, size: 0x8, addend: 0x0, symName: __ZNSt3__16vectorIP9BTreeNodeNS_9allocatorIS2_EEE7__allocB8ne180100Ev, symObjAddr: 0x451C, symBinAddr: 0x10000C4DC, symSize: 0x28 }
  - { offset: 0xEB51, size: 0x8, addend: 0x0, symName: __ZNKSt3__16vectorIP9BTreeNodeNS_9allocatorIS2_EEE11__recommendB8ne180100Em, symObjAddr: 0x4544, symBinAddr: 0x10000C504, symSize: 0xAC }
  - { offset: 0xEBA5, size: 0x8, addend: 0x0, symName: __ZNSt3__114__split_bufferIP9BTreeNodeRNS_9allocatorIS2_EEEC1EmmS5_, symObjAddr: 0x45F0, symBinAddr: 0x10000C5B0, symSize: 0x44 }
  - { offset: 0xEBFA, size: 0x8, addend: 0x0, symName: __ZNSt3__114__split_bufferIP9BTreeNodeRNS_9allocatorIS2_EEE18__construct_at_endEm, symObjAddr: 0x4634, symBinAddr: 0x10000C5F4, symSize: 0xB0 }
  - { offset: 0xEC3C, size: 0x8, addend: 0x0, symName: __ZNSt3__114__split_bufferIP9BTreeNodeRNS_9allocatorIS2_EEED1Ev, symObjAddr: 0x47F4, symBinAddr: 0x10000C7B4, symSize: 0x2C }
  - { offset: 0xEC67, size: 0x8, addend: 0x0, symName: __ZNSt3__117__compressed_pairIPP9BTreeNodeNS_9allocatorIS2_EEE5firstB8ne180100Ev, symObjAddr: 0x4820, symBinAddr: 0x10000C7E0, symSize: 0x24 }
  - { offset: 0xEC8C, size: 0x8, addend: 0x0, symName: __ZNSt3__122__compressed_pair_elemIPP9BTreeNodeLi0ELb0EE5__getB8ne180100Ev, symObjAddr: 0x4844, symBinAddr: 0x10000C804, symSize: 0x14 }
  - { offset: 0xECCA, size: 0x8, addend: 0x0, symName: __ZNSt3__16vectorIP9BTreeNodeNS_9allocatorIS2_EEE21_ConstructTransactionC1B8ne180100ERS5_m, symObjAddr: 0x4858, symBinAddr: 0x10000C818, symSize: 0x3C }
  - { offset: 0xED11, size: 0x8, addend: 0x0, symName: __ZNSt3__116allocator_traitsINS_9allocatorIP9BTreeNodeEEE9constructB8ne180100IS3_JEvEEvRS4_PT_DpOT0_, symObjAddr: 0x4894, symBinAddr: 0x10000C854, symSize: 0x2C }
  - { offset: 0xED53, size: 0x8, addend: 0x0, symName: __ZNSt3__16vectorIP9BTreeNodeNS_9allocatorIS2_EEE21_ConstructTransactionD1B8ne180100Ev, symObjAddr: 0x48D4, symBinAddr: 0x10000C894, symSize: 0x2C }
  - { offset: 0xED7C, size: 0x8, addend: 0x0, symName: __ZNSt3__16vectorIP9BTreeNodeNS_9allocatorIS2_EEE21_ConstructTransactionC2B8ne180100ERS5_m, symObjAddr: 0x4900, symBinAddr: 0x10000C8C0, symSize: 0x44 }
  - { offset: 0xEDC3, size: 0x8, addend: 0x0, symName: __ZNSt3__19allocatorIP9BTreeNodeE9constructB8ne180100IS2_JEEEvPT_DpOT0_, symObjAddr: 0x4944, symBinAddr: 0x10000C904, symSize: 0x1C }
  - { offset: 0xEE04, size: 0x8, addend: 0x0, symName: __ZNSt3__16vectorIP9BTreeNodeNS_9allocatorIS2_EEE21_ConstructTransactionD2B8ne180100Ev, symObjAddr: 0x4960, symBinAddr: 0x10000C920, symSize: 0x20 }
  - { offset: 0xEE2D, size: 0x8, addend: 0x0, symName: __ZNSt3__117__compressed_pairIPP9BTreeNodeNS_9allocatorIS2_EEE6secondB8ne180100Ev, symObjAddr: 0x4980, symBinAddr: 0x10000C940, symSize: 0x24 }
  - { offset: 0xEE52, size: 0x8, addend: 0x0, symName: __ZNSt3__122__compressed_pair_elemINS_9allocatorIP9BTreeNodeEELi1ELb1EE5__getB8ne180100Ev, symObjAddr: 0x49A4, symBinAddr: 0x10000C964, symSize: 0x14 }
  - { offset: 0xEE76, size: 0x8, addend: 0x0, symName: __ZNKSt3__16vectorIP9BTreeNodeNS_9allocatorIS2_EEE8max_sizeEv, symObjAddr: 0x49B8, symBinAddr: 0x10000C978, symSize: 0x60 }
  - { offset: 0xEE9D, size: 0x8, addend: 0x0, symName: __ZNKSt3__16vectorIP9BTreeNodeNS_9allocatorIS2_EEE20__throw_length_errorB8ne180100Ev, symObjAddr: 0x4A18, symBinAddr: 0x10000C9D8, symSize: 0x1C }
  - { offset: 0xEEC2, size: 0x8, addend: 0x0, symName: __ZNKSt3__16vectorIP9BTreeNodeNS_9allocatorIS2_EEE8capacityB8ne180100Ev, symObjAddr: 0x4A34, symBinAddr: 0x10000C9F4, symSize: 0x40 }
  - { offset: 0xEEF1, size: 0x8, addend: 0x0, symName: __ZNSt3__116allocator_traitsINS_9allocatorIP9BTreeNodeEEE8max_sizeB8ne180100IS4_vEEmRKS4_, symObjAddr: 0x4A74, symBinAddr: 0x10000CA34, symSize: 0x24 }
  - { offset: 0xEF1F, size: 0x8, addend: 0x0, symName: __ZNKSt3__16vectorIP9BTreeNodeNS_9allocatorIS2_EEE7__allocB8ne180100Ev, symObjAddr: 0x4A98, symBinAddr: 0x10000CA58, symSize: 0x28 }
  - { offset: 0xEF44, size: 0x8, addend: 0x0, symName: __ZNKSt3__19allocatorIP9BTreeNodeE8max_sizeB8ne180100Ev, symObjAddr: 0x4AC0, symBinAddr: 0x10000CA80, symSize: 0x14 }
  - { offset: 0xEF69, size: 0x8, addend: 0x0, symName: __ZNKSt3__117__compressed_pairIPP9BTreeNodeNS_9allocatorIS2_EEE6secondB8ne180100Ev, symObjAddr: 0x4AD4, symBinAddr: 0x10000CA94, symSize: 0x24 }
  - { offset: 0xEF8E, size: 0x8, addend: 0x0, symName: __ZNKSt3__122__compressed_pair_elemINS_9allocatorIP9BTreeNodeEELi1ELb1EE5__getB8ne180100Ev, symObjAddr: 0x4AF8, symBinAddr: 0x10000CAB8, symSize: 0x14 }
  - { offset: 0xEFB3, size: 0x8, addend: 0x0, symName: __ZNKSt3__16vectorIP9BTreeNodeNS_9allocatorIS2_EEE9__end_capB8ne180100Ev, symObjAddr: 0x4B0C, symBinAddr: 0x10000CACC, symSize: 0x28 }
  - { offset: 0xEFD8, size: 0x8, addend: 0x0, symName: __ZNKSt3__117__compressed_pairIPP9BTreeNodeNS_9allocatorIS2_EEE5firstB8ne180100Ev, symObjAddr: 0x4B34, symBinAddr: 0x10000CAF4, symSize: 0x24 }
  - { offset: 0xEFFD, size: 0x8, addend: 0x0, symName: __ZNKSt3__122__compressed_pair_elemIPP9BTreeNodeLi0ELb0EE5__getB8ne180100Ev, symObjAddr: 0x4B58, symBinAddr: 0x10000CB18, symSize: 0x14 }
  - { offset: 0xF022, size: 0x8, addend: 0x0, symName: __ZNSt3__114__split_bufferIP9BTreeNodeRNS_9allocatorIS2_EEEC2EmmS5_, symObjAddr: 0x4B6C, symBinAddr: 0x10000CB2C, symSize: 0xCC }
  - { offset: 0xF094, size: 0x8, addend: 0x0, symName: __ZNSt3__117__compressed_pairIPP9BTreeNodeRNS_9allocatorIS2_EEEC1B8ne180100IDnS6_EEOT_OT0_, symObjAddr: 0x4C38, symBinAddr: 0x10000CBF8, symSize: 0x3C }
  - { offset: 0xF0EB, size: 0x8, addend: 0x0, symName: __ZNSt3__114__split_bufferIP9BTreeNodeRNS_9allocatorIS2_EEE7__allocB8ne180100Ev, symObjAddr: 0x4CB4, symBinAddr: 0x10000CC74, symSize: 0x28 }
  - { offset: 0xF110, size: 0x8, addend: 0x0, symName: __ZNSt3__114__split_bufferIP9BTreeNodeRNS_9allocatorIS2_EEE9__end_capB8ne180100Ev, symObjAddr: 0x4CDC, symBinAddr: 0x10000CC9C, symSize: 0x28 }
  - { offset: 0xF135, size: 0x8, addend: 0x0, symName: __ZNSt3__117__compressed_pairIPP9BTreeNodeRNS_9allocatorIS2_EEEC2B8ne180100IDnS6_EEOT_OT0_, symObjAddr: 0x4D04, symBinAddr: 0x10000CCC4, symSize: 0x48 }
  - { offset: 0xF18C, size: 0x8, addend: 0x0, symName: __ZNSt3__122__compressed_pair_elemIRNS_9allocatorIP9BTreeNodeEELi1ELb0EEC2B8ne180100IS5_vEEOT_, symObjAddr: 0x4D4C, symBinAddr: 0x10000CD0C, symSize: 0x20 }
  - { offset: 0xF1CD, size: 0x8, addend: 0x0, symName: __ZNSt3__19allocatorIP9BTreeNodeE8allocateB8ne180100Em, symObjAddr: 0x4D6C, symBinAddr: 0x10000CD2C, symSize: 0x54 }
  - { offset: 0xF200, size: 0x8, addend: 0x0, symName: __ZNSt3__117__compressed_pairIPP9BTreeNodeRNS_9allocatorIS2_EEE6secondB8ne180100Ev, symObjAddr: 0x4DC0, symBinAddr: 0x10000CD80, symSize: 0x28 }
  - { offset: 0xF225, size: 0x8, addend: 0x0, symName: __ZNSt3__122__compressed_pair_elemIRNS_9allocatorIP9BTreeNodeEELi1ELb0EE5__getB8ne180100Ev, symObjAddr: 0x4DE8, symBinAddr: 0x10000CDA8, symSize: 0x18 }
  - { offset: 0xF24A, size: 0x8, addend: 0x0, symName: __ZNSt3__117__compressed_pairIPP9BTreeNodeRNS_9allocatorIS2_EEE5firstB8ne180100Ev, symObjAddr: 0x4E00, symBinAddr: 0x10000CDC0, symSize: 0x24 }
  - { offset: 0xF279, size: 0x8, addend: 0x0, symName: __ZNSt3__114__split_bufferIP9BTreeNodeRNS_9allocatorIS2_EEE21_ConstructTransactionC1B8ne180100EPPS2_m, symObjAddr: 0x4E24, symBinAddr: 0x10000CDE4, symSize: 0x3C }
  - { offset: 0xF2BE, size: 0x8, addend: 0x0, symName: __ZNSt3__114__split_bufferIP9BTreeNodeRNS_9allocatorIS2_EEE21_ConstructTransactionD1B8ne180100Ev, symObjAddr: 0x4E60, symBinAddr: 0x10000CE20, symSize: 0x2C }
  - { offset: 0xF2E7, size: 0x8, addend: 0x0, symName: __ZNSt3__114__split_bufferIP9BTreeNodeRNS_9allocatorIS2_EEE21_ConstructTransactionC2B8ne180100EPPS2_m, symObjAddr: 0x4E8C, symBinAddr: 0x10000CE4C, symSize: 0x44 }
  - { offset: 0xF32C, size: 0x8, addend: 0x0, symName: __ZNSt3__114__split_bufferIP9BTreeNodeRNS_9allocatorIS2_EEE21_ConstructTransactionD2B8ne180100Ev, symObjAddr: 0x4ED0, symBinAddr: 0x10000CE90, symSize: 0x20 }
  - { offset: 0xF355, size: 0x8, addend: 0x0, symName: __ZNKSt3__16vectorIP9BTreeNodeNS_9allocatorIS2_EEE17__annotate_deleteB8ne180100Ev, symObjAddr: 0x4EF0, symBinAddr: 0x10000CEB0, symSize: 0x10 }
  - { offset: 0xF37A, size: 0x8, addend: 0x0, symName: __ZNSt3__116reverse_iteratorIPP9BTreeNodeEC1B8ne180100ES3_, symObjAddr: 0x4F78, symBinAddr: 0x10000CF38, symSize: 0x34 }
  - { offset: 0xF3B1, size: 0x8, addend: 0x0, symName: __ZNKSt3__116reverse_iteratorIPP9BTreeNodeE4baseB8ne180100Ev, symObjAddr: 0x4FAC, symBinAddr: 0x10000CF6C, symSize: 0x18 }
  - { offset: 0xF3D6, size: 0x8, addend: 0x0, symName: __ZNKSt3__16vectorIP9BTreeNodeNS_9allocatorIS2_EEE14__annotate_newB8ne180100Em, symObjAddr: 0x5000, symBinAddr: 0x10000CFC0, symSize: 0x14 }
  - { offset: 0xF42D, size: 0x8, addend: 0x0, symName: __ZNKSt3__111__move_loopINS_17_ClassicAlgPolicyEEclB8ne180100INS_16reverse_iteratorIPP9BTreeNodeEES8_S8_EENS_4pairIT_T1_EESA_T0_SB_, symObjAddr: 0x5304, symBinAddr: 0x10000D2C4, symSize: 0xA0 }
  - { offset: 0xF49C, size: 0x8, addend: 0x0, symName: __ZNSt3__18_IterOpsINS_17_ClassicAlgPolicyEE11__iter_moveB8ne180100IRNS_16reverse_iteratorIPP9BTreeNodeEETnNS_9enable_ifIXsr12is_referenceIDTdeclsr3stdE7declvalIRT_EEEEE5valueEiE4typeELi0EEEDTclsr3stdE4movedeclsr3stdE7declvalISC_EEEEOSB_, symObjAddr: 0x5534, symBinAddr: 0x10000D4F4, symSize: 0x28 }
  - { offset: 0xF4CE, size: 0x8, addend: 0x0, symName: __ZNKSt3__116reverse_iteratorIPP9BTreeNodeEdeB8ne180100Ev, symObjAddr: 0x555C, symBinAddr: 0x10000D51C, symSize: 0x28 }
  - { offset: 0xF501, size: 0x8, addend: 0x0, symName: __ZNSt3__116reverse_iteratorIPP9BTreeNodeEppB8ne180100Ev, symObjAddr: 0x5584, symBinAddr: 0x10000D544, symSize: 0x20 }
  - { offset: 0xF526, size: 0x8, addend: 0x0, symName: __ZNSt3__18_IterOpsINS_17_ClassicAlgPolicyEE25__validate_iter_referenceB8ne180100IRNS_16reverse_iteratorIPP9BTreeNodeEEEEvv, symObjAddr: 0x55A4, symBinAddr: 0x10000D564, symSize: 0x4 }
  - { offset: 0xF544, size: 0x8, addend: 0x0, symName: __ZNSt3__118__unwrap_iter_implINS_16reverse_iteratorIPP9BTreeNodeEELb0EE8__unwrapB8ne180100ES5_, symObjAddr: 0x55A8, symBinAddr: 0x10000D568, symSize: 0x24 }
  - { offset: 0xF56C, size: 0x8, addend: 0x0, symName: __ZNSt3__14pairINS_16reverse_iteratorIPP9BTreeNodeEES5_EC1B8ne180100IS5_S5_TnNS_9enable_ifIXclsr10_CheckArgsE17__enable_implicitIT_T0_EEEiE4typeELi0EEEOS9_OSA_, symObjAddr: 0x55CC, symBinAddr: 0x10000D58C, symSize: 0x3C }
  - { offset: 0xF5C9, size: 0x8, addend: 0x0, symName: __ZNSt3__14pairINS_16reverse_iteratorIPP9BTreeNodeEES5_EC2B8ne180100IS5_S5_TnNS_9enable_ifIXclsr10_CheckArgsE17__enable_implicitIT_T0_EEEiE4typeELi0EEEOS9_OSA_, symObjAddr: 0x5608, symBinAddr: 0x10000D5C8, symSize: 0x34 }
  - { offset: 0xF626, size: 0x8, addend: 0x0, symName: __ZNSt3__118__unwrap_iter_implINS_16reverse_iteratorIPP9BTreeNodeEELb0EE8__rewrapB8ne180100ES5_S5_, symObjAddr: 0x563C, symBinAddr: 0x10000D5FC, symSize: 0x2C }
  - { offset: 0xF653, size: 0x8, addend: 0x0, symName: __ZNSt3__116reverse_iteratorIPP9BTreeNodeEC2B8ne180100ES3_, symObjAddr: 0x5668, symBinAddr: 0x10000D628, symSize: 0x28 }
  - { offset: 0xF68A, size: 0x8, addend: 0x0, symName: __ZNSt3__114__split_bufferIP9BTreeNodeRNS_9allocatorIS2_EEED2Ev, symObjAddr: 0x5690, symBinAddr: 0x10000D650, symSize: 0x84 }
  - { offset: 0xF6B5, size: 0x8, addend: 0x0, symName: __ZNSt3__114__split_bufferIP9BTreeNodeRNS_9allocatorIS2_EEE5clearB8ne180100Ev, symObjAddr: 0x5714, symBinAddr: 0x10000D6D4, symSize: 0x28 }
  - { offset: 0xF6DA, size: 0x8, addend: 0x0, symName: __ZNSt3__116allocator_traitsINS_9allocatorIP9BTreeNodeEEE10deallocateB8ne180100ERS4_PS3_m, symObjAddr: 0x573C, symBinAddr: 0x10000D6FC, symSize: 0x34 }
  - { offset: 0xF71C, size: 0x8, addend: 0x0, symName: __ZNKSt3__114__split_bufferIP9BTreeNodeRNS_9allocatorIS2_EEE8capacityB8ne180100Ev, symObjAddr: 0x5770, symBinAddr: 0x10000D730, symSize: 0x40 }
  - { offset: 0xF741, size: 0x8, addend: 0x0, symName: __ZNSt3__114__split_bufferIP9BTreeNodeRNS_9allocatorIS2_EEE17__destruct_at_endB8ne180100EPS2_, symObjAddr: 0x57B0, symBinAddr: 0x10000D770, symSize: 0x2C }
  - { offset: 0xF773, size: 0x8, addend: 0x0, symName: __ZNSt3__114__split_bufferIP9BTreeNodeRNS_9allocatorIS2_EEE17__destruct_at_endB8ne180100EPS2_NS_17integral_constantIbLb0EEE, symObjAddr: 0x57DC, symBinAddr: 0x10000D79C, symSize: 0x7C }
  - { offset: 0xF7B2, size: 0x8, addend: 0x0, symName: __ZNSt3__116allocator_traitsINS_9allocatorIP9BTreeNodeEEE7destroyB8ne180100IS3_vEEvRS4_PT_, symObjAddr: 0x5858, symBinAddr: 0x10000D818, symSize: 0x2C }
  - { offset: 0xF7EF, size: 0x8, addend: 0x0, symName: __ZNSt3__19allocatorIP9BTreeNodeE7destroyB8ne180100EPS2_, symObjAddr: 0x5884, symBinAddr: 0x10000D844, symSize: 0x14 }
  - { offset: 0xF822, size: 0x8, addend: 0x0, symName: __ZNSt3__19allocatorIP9BTreeNodeE10deallocateB8ne180100EPS2_m, symObjAddr: 0x5898, symBinAddr: 0x10000D858, symSize: 0x40 }
  - { offset: 0xF863, size: 0x8, addend: 0x0, symName: __ZNKSt3__114__split_bufferIP9BTreeNodeRNS_9allocatorIS2_EEE9__end_capB8ne180100Ev, symObjAddr: 0x58D8, symBinAddr: 0x10000D898, symSize: 0x28 }
  - { offset: 0xF888, size: 0x8, addend: 0x0, symName: __ZNKSt3__117__compressed_pairIPP9BTreeNodeRNS_9allocatorIS2_EEE5firstB8ne180100Ev, symObjAddr: 0x5900, symBinAddr: 0x10000D8C0, symSize: 0x24 }
  - { offset: 0xF8AD, size: 0x8, addend: 0x0, symName: __ZNSt3__16vectorIP9BTreeNodeNS_9allocatorIS2_EEE22__base_destruct_at_endB8ne180100EPS2_, symObjAddr: 0x5924, symBinAddr: 0x10000D8E4, symSize: 0x88 }
  - { offset: 0xF8F0, size: 0x8, addend: 0x0, symName: __ZNKSt3__16vectorIP9BTreeNodeNS_9allocatorIS2_EEE17__annotate_shrinkB8ne180100Em, symObjAddr: 0x59AC, symBinAddr: 0x10000D96C, symSize: 0x14 }
  - { offset: 0xF923, size: 0x8, addend: 0x0, symName: __ZNSt3__16vectorIP13BPlusTreeNodeNS_9allocatorIS2_EEE8__appendEm, symObjAddr: 0x59C0, symBinAddr: 0x10000D980, symSize: 0x104 }
  - { offset: 0xF97D, size: 0x8, addend: 0x0, symName: __ZNSt3__16vectorIP13BPlusTreeNodeNS_9allocatorIS2_EEE17__destruct_at_endB8ne180100EPS2_, symObjAddr: 0x5AC4, symBinAddr: 0x10000DA84, symSize: 0x4C }
  - { offset: 0xF9C0, size: 0x8, addend: 0x0, symName: __ZNSt3__16vectorIP13BPlusTreeNodeNS_9allocatorIS2_EEE9__end_capB8ne180100Ev, symObjAddr: 0x5B10, symBinAddr: 0x10000DAD0, symSize: 0x28 }
  - { offset: 0xF9E4, size: 0x8, addend: 0x0, symName: __ZNSt3__16vectorIP13BPlusTreeNodeNS_9allocatorIS2_EEE18__construct_at_endEm, symObjAddr: 0x5B38, symBinAddr: 0x10000DAF8, symSize: 0xC4 }
  - { offset: 0xFA55, size: 0x8, addend: 0x0, symName: __ZNSt3__16vectorIP13BPlusTreeNodeNS_9allocatorIS2_EEE7__allocB8ne180100Ev, symObjAddr: 0x5BFC, symBinAddr: 0x10000DBBC, symSize: 0x28 }
  - { offset: 0xFA79, size: 0x8, addend: 0x0, symName: __ZNKSt3__16vectorIP13BPlusTreeNodeNS_9allocatorIS2_EEE11__recommendB8ne180100Em, symObjAddr: 0x5C24, symBinAddr: 0x10000DBE4, symSize: 0xAC }
  - { offset: 0xFACD, size: 0x8, addend: 0x0, symName: __ZNSt3__114__split_bufferIP13BPlusTreeNodeRNS_9allocatorIS2_EEEC1EmmS5_, symObjAddr: 0x5CD0, symBinAddr: 0x10000DC90, symSize: 0x44 }
  - { offset: 0xFB22, size: 0x8, addend: 0x0, symName: __ZNSt3__114__split_bufferIP13BPlusTreeNodeRNS_9allocatorIS2_EEE18__construct_at_endEm, symObjAddr: 0x5D14, symBinAddr: 0x10000DCD4, symSize: 0xB0 }
  - { offset: 0xFB64, size: 0x8, addend: 0x0, symName: __ZNSt3__114__split_bufferIP13BPlusTreeNodeRNS_9allocatorIS2_EEED1Ev, symObjAddr: 0x5ED4, symBinAddr: 0x10000DE94, symSize: 0x2C }
  - { offset: 0xFB8F, size: 0x8, addend: 0x0, symName: __ZNSt3__117__compressed_pairIPP13BPlusTreeNodeNS_9allocatorIS2_EEE5firstB8ne180100Ev, symObjAddr: 0x5F00, symBinAddr: 0x10000DEC0, symSize: 0x24 }
  - { offset: 0xFBB4, size: 0x8, addend: 0x0, symName: __ZNSt3__122__compressed_pair_elemIPP13BPlusTreeNodeLi0ELb0EE5__getB8ne180100Ev, symObjAddr: 0x5F24, symBinAddr: 0x10000DEE4, symSize: 0x14 }
  - { offset: 0xFBF2, size: 0x8, addend: 0x0, symName: __ZNSt3__16vectorIP13BPlusTreeNodeNS_9allocatorIS2_EEE21_ConstructTransactionC1B8ne180100ERS5_m, symObjAddr: 0x5F38, symBinAddr: 0x10000DEF8, symSize: 0x3C }
  - { offset: 0xFC39, size: 0x8, addend: 0x0, symName: __ZNSt3__116allocator_traitsINS_9allocatorIP13BPlusTreeNodeEEE9constructB8ne180100IS3_JEvEEvRS4_PT_DpOT0_, symObjAddr: 0x5F74, symBinAddr: 0x10000DF34, symSize: 0x2C }
  - { offset: 0xFC7B, size: 0x8, addend: 0x0, symName: __ZNSt3__16vectorIP13BPlusTreeNodeNS_9allocatorIS2_EEE21_ConstructTransactionD1B8ne180100Ev, symObjAddr: 0x5FB4, symBinAddr: 0x10000DF74, symSize: 0x2C }
  - { offset: 0xFCA4, size: 0x8, addend: 0x0, symName: __ZNSt3__16vectorIP13BPlusTreeNodeNS_9allocatorIS2_EEE21_ConstructTransactionC2B8ne180100ERS5_m, symObjAddr: 0x5FE0, symBinAddr: 0x10000DFA0, symSize: 0x44 }
  - { offset: 0xFCEB, size: 0x8, addend: 0x0, symName: __ZNSt3__19allocatorIP13BPlusTreeNodeE9constructB8ne180100IS2_JEEEvPT_DpOT0_, symObjAddr: 0x6024, symBinAddr: 0x10000DFE4, symSize: 0x1C }
  - { offset: 0xFD2C, size: 0x8, addend: 0x0, symName: __ZNSt3__16vectorIP13BPlusTreeNodeNS_9allocatorIS2_EEE21_ConstructTransactionD2B8ne180100Ev, symObjAddr: 0x6040, symBinAddr: 0x10000E000, symSize: 0x20 }
  - { offset: 0xFD55, size: 0x8, addend: 0x0, symName: __ZNSt3__117__compressed_pairIPP13BPlusTreeNodeNS_9allocatorIS2_EEE6secondB8ne180100Ev, symObjAddr: 0x6060, symBinAddr: 0x10000E020, symSize: 0x24 }
  - { offset: 0xFD7A, size: 0x8, addend: 0x0, symName: __ZNSt3__122__compressed_pair_elemINS_9allocatorIP13BPlusTreeNodeEELi1ELb1EE5__getB8ne180100Ev, symObjAddr: 0x6084, symBinAddr: 0x10000E044, symSize: 0x14 }
  - { offset: 0xFD9E, size: 0x8, addend: 0x0, symName: __ZNKSt3__16vectorIP13BPlusTreeNodeNS_9allocatorIS2_EEE8max_sizeEv, symObjAddr: 0x6098, symBinAddr: 0x10000E058, symSize: 0x60 }
  - { offset: 0xFDC5, size: 0x8, addend: 0x0, symName: __ZNKSt3__16vectorIP13BPlusTreeNodeNS_9allocatorIS2_EEE20__throw_length_errorB8ne180100Ev, symObjAddr: 0x60F8, symBinAddr: 0x10000E0B8, symSize: 0x1C }
  - { offset: 0xFDEA, size: 0x8, addend: 0x0, symName: __ZNKSt3__16vectorIP13BPlusTreeNodeNS_9allocatorIS2_EEE8capacityB8ne180100Ev, symObjAddr: 0x6114, symBinAddr: 0x10000E0D4, symSize: 0x40 }
  - { offset: 0xFE19, size: 0x8, addend: 0x0, symName: __ZNSt3__116allocator_traitsINS_9allocatorIP13BPlusTreeNodeEEE8max_sizeB8ne180100IS4_vEEmRKS4_, symObjAddr: 0x6154, symBinAddr: 0x10000E114, symSize: 0x24 }
  - { offset: 0xFE47, size: 0x8, addend: 0x0, symName: __ZNKSt3__16vectorIP13BPlusTreeNodeNS_9allocatorIS2_EEE7__allocB8ne180100Ev, symObjAddr: 0x6178, symBinAddr: 0x10000E138, symSize: 0x28 }
  - { offset: 0xFE6C, size: 0x8, addend: 0x0, symName: __ZNKSt3__19allocatorIP13BPlusTreeNodeE8max_sizeB8ne180100Ev, symObjAddr: 0x61A0, symBinAddr: 0x10000E160, symSize: 0x14 }
  - { offset: 0xFE91, size: 0x8, addend: 0x0, symName: __ZNKSt3__117__compressed_pairIPP13BPlusTreeNodeNS_9allocatorIS2_EEE6secondB8ne180100Ev, symObjAddr: 0x61B4, symBinAddr: 0x10000E174, symSize: 0x24 }
  - { offset: 0xFEB6, size: 0x8, addend: 0x0, symName: __ZNKSt3__122__compressed_pair_elemINS_9allocatorIP13BPlusTreeNodeEELi1ELb1EE5__getB8ne180100Ev, symObjAddr: 0x61D8, symBinAddr: 0x10000E198, symSize: 0x14 }
  - { offset: 0xFEDB, size: 0x8, addend: 0x0, symName: __ZNKSt3__16vectorIP13BPlusTreeNodeNS_9allocatorIS2_EEE9__end_capB8ne180100Ev, symObjAddr: 0x61EC, symBinAddr: 0x10000E1AC, symSize: 0x28 }
  - { offset: 0xFF00, size: 0x8, addend: 0x0, symName: __ZNKSt3__117__compressed_pairIPP13BPlusTreeNodeNS_9allocatorIS2_EEE5firstB8ne180100Ev, symObjAddr: 0x6214, symBinAddr: 0x10000E1D4, symSize: 0x24 }
  - { offset: 0xFF25, size: 0x8, addend: 0x0, symName: __ZNKSt3__122__compressed_pair_elemIPP13BPlusTreeNodeLi0ELb0EE5__getB8ne180100Ev, symObjAddr: 0x6238, symBinAddr: 0x10000E1F8, symSize: 0x14 }
  - { offset: 0xFF4A, size: 0x8, addend: 0x0, symName: __ZNSt3__114__split_bufferIP13BPlusTreeNodeRNS_9allocatorIS2_EEEC2EmmS5_, symObjAddr: 0x624C, symBinAddr: 0x10000E20C, symSize: 0xCC }
  - { offset: 0xFFBC, size: 0x8, addend: 0x0, symName: __ZNSt3__117__compressed_pairIPP13BPlusTreeNodeRNS_9allocatorIS2_EEEC1B8ne180100IDnS6_EEOT_OT0_, symObjAddr: 0x6318, symBinAddr: 0x10000E2D8, symSize: 0x3C }
  - { offset: 0x10013, size: 0x8, addend: 0x0, symName: __ZNSt3__114__split_bufferIP13BPlusTreeNodeRNS_9allocatorIS2_EEE7__allocB8ne180100Ev, symObjAddr: 0x6394, symBinAddr: 0x10000E354, symSize: 0x28 }
  - { offset: 0x10038, size: 0x8, addend: 0x0, symName: __ZNSt3__114__split_bufferIP13BPlusTreeNodeRNS_9allocatorIS2_EEE9__end_capB8ne180100Ev, symObjAddr: 0x63BC, symBinAddr: 0x10000E37C, symSize: 0x28 }
  - { offset: 0x1005D, size: 0x8, addend: 0x0, symName: __ZNSt3__117__compressed_pairIPP13BPlusTreeNodeRNS_9allocatorIS2_EEEC2B8ne180100IDnS6_EEOT_OT0_, symObjAddr: 0x63E4, symBinAddr: 0x10000E3A4, symSize: 0x48 }
  - { offset: 0x100B4, size: 0x8, addend: 0x0, symName: __ZNSt3__122__compressed_pair_elemIRNS_9allocatorIP13BPlusTreeNodeEELi1ELb0EEC2B8ne180100IS5_vEEOT_, symObjAddr: 0x642C, symBinAddr: 0x10000E3EC, symSize: 0x20 }
  - { offset: 0x100F5, size: 0x8, addend: 0x0, symName: __ZNSt3__19allocatorIP13BPlusTreeNodeE8allocateB8ne180100Em, symObjAddr: 0x644C, symBinAddr: 0x10000E40C, symSize: 0x54 }
  - { offset: 0x10128, size: 0x8, addend: 0x0, symName: __ZNSt3__117__compressed_pairIPP13BPlusTreeNodeRNS_9allocatorIS2_EEE6secondB8ne180100Ev, symObjAddr: 0x64A0, symBinAddr: 0x10000E460, symSize: 0x28 }
  - { offset: 0x1014D, size: 0x8, addend: 0x0, symName: __ZNSt3__122__compressed_pair_elemIRNS_9allocatorIP13BPlusTreeNodeEELi1ELb0EE5__getB8ne180100Ev, symObjAddr: 0x64C8, symBinAddr: 0x10000E488, symSize: 0x18 }
  - { offset: 0x10172, size: 0x8, addend: 0x0, symName: __ZNSt3__117__compressed_pairIPP13BPlusTreeNodeRNS_9allocatorIS2_EEE5firstB8ne180100Ev, symObjAddr: 0x64E0, symBinAddr: 0x10000E4A0, symSize: 0x24 }
  - { offset: 0x101A1, size: 0x8, addend: 0x0, symName: __ZNSt3__114__split_bufferIP13BPlusTreeNodeRNS_9allocatorIS2_EEE21_ConstructTransactionC1B8ne180100EPPS2_m, symObjAddr: 0x6504, symBinAddr: 0x10000E4C4, symSize: 0x3C }
  - { offset: 0x101E6, size: 0x8, addend: 0x0, symName: __ZNSt3__114__split_bufferIP13BPlusTreeNodeRNS_9allocatorIS2_EEE21_ConstructTransactionD1B8ne180100Ev, symObjAddr: 0x6540, symBinAddr: 0x10000E500, symSize: 0x2C }
  - { offset: 0x1020F, size: 0x8, addend: 0x0, symName: __ZNSt3__114__split_bufferIP13BPlusTreeNodeRNS_9allocatorIS2_EEE21_ConstructTransactionC2B8ne180100EPPS2_m, symObjAddr: 0x656C, symBinAddr: 0x10000E52C, symSize: 0x44 }
  - { offset: 0x10254, size: 0x8, addend: 0x0, symName: __ZNSt3__114__split_bufferIP13BPlusTreeNodeRNS_9allocatorIS2_EEE21_ConstructTransactionD2B8ne180100Ev, symObjAddr: 0x65B0, symBinAddr: 0x10000E570, symSize: 0x20 }
  - { offset: 0x1027D, size: 0x8, addend: 0x0, symName: __ZNKSt3__16vectorIP13BPlusTreeNodeNS_9allocatorIS2_EEE17__annotate_deleteB8ne180100Ev, symObjAddr: 0x65D0, symBinAddr: 0x10000E590, symSize: 0x10 }
  - { offset: 0x102A2, size: 0x8, addend: 0x0, symName: __ZNSt3__116reverse_iteratorIPP13BPlusTreeNodeEC1B8ne180100ES3_, symObjAddr: 0x6658, symBinAddr: 0x10000E618, symSize: 0x34 }
  - { offset: 0x102D9, size: 0x8, addend: 0x0, symName: __ZNKSt3__116reverse_iteratorIPP13BPlusTreeNodeE4baseB8ne180100Ev, symObjAddr: 0x668C, symBinAddr: 0x10000E64C, symSize: 0x18 }
  - { offset: 0x102FE, size: 0x8, addend: 0x0, symName: __ZNKSt3__16vectorIP13BPlusTreeNodeNS_9allocatorIS2_EEE14__annotate_newB8ne180100Em, symObjAddr: 0x66E0, symBinAddr: 0x10000E6A0, symSize: 0x14 }
  - { offset: 0x1034B, size: 0x8, addend: 0x0, symName: __ZNKSt3__111__move_loopINS_17_ClassicAlgPolicyEEclB8ne180100INS_16reverse_iteratorIPP13BPlusTreeNodeEES8_S8_EENS_4pairIT_T1_EESA_T0_SB_, symObjAddr: 0x69E4, symBinAddr: 0x10000E9A4, symSize: 0xA0 }
  - { offset: 0x103BA, size: 0x8, addend: 0x0, symName: __ZNSt3__18_IterOpsINS_17_ClassicAlgPolicyEE11__iter_moveB8ne180100IRNS_16reverse_iteratorIPP13BPlusTreeNodeEETnNS_9enable_ifIXsr12is_referenceIDTdeclsr3stdE7declvalIRT_EEEEE5valueEiE4typeELi0EEEDTclsr3stdE4movedeclsr3stdE7declvalISC_EEEEOSB_, symObjAddr: 0x6C14, symBinAddr: 0x10000EBD4, symSize: 0x28 }
  - { offset: 0x103EC, size: 0x8, addend: 0x0, symName: __ZNKSt3__116reverse_iteratorIPP13BPlusTreeNodeEdeB8ne180100Ev, symObjAddr: 0x6C3C, symBinAddr: 0x10000EBFC, symSize: 0x28 }
  - { offset: 0x1041F, size: 0x8, addend: 0x0, symName: __ZNSt3__116reverse_iteratorIPP13BPlusTreeNodeEppB8ne180100Ev, symObjAddr: 0x6C64, symBinAddr: 0x10000EC24, symSize: 0x20 }
  - { offset: 0x10444, size: 0x8, addend: 0x0, symName: __ZNSt3__18_IterOpsINS_17_ClassicAlgPolicyEE25__validate_iter_referenceB8ne180100IRNS_16reverse_iteratorIPP13BPlusTreeNodeEEEEvv, symObjAddr: 0x6C84, symBinAddr: 0x10000EC44, symSize: 0x4 }
  - { offset: 0x10462, size: 0x8, addend: 0x0, symName: __ZNSt3__118__unwrap_iter_implINS_16reverse_iteratorIPP13BPlusTreeNodeEELb0EE8__unwrapB8ne180100ES5_, symObjAddr: 0x6C88, symBinAddr: 0x10000EC48, symSize: 0x24 }
  - { offset: 0x1048A, size: 0x8, addend: 0x0, symName: __ZNSt3__14pairINS_16reverse_iteratorIPP13BPlusTreeNodeEES5_EC1B8ne180100IS5_S5_TnNS_9enable_ifIXclsr10_CheckArgsE17__enable_implicitIT_T0_EEEiE4typeELi0EEEOS9_OSA_, symObjAddr: 0x6CAC, symBinAddr: 0x10000EC6C, symSize: 0x3C }
  - { offset: 0x104E7, size: 0x8, addend: 0x0, symName: __ZNSt3__14pairINS_16reverse_iteratorIPP13BPlusTreeNodeEES5_EC2B8ne180100IS5_S5_TnNS_9enable_ifIXclsr10_CheckArgsE17__enable_implicitIT_T0_EEEiE4typeELi0EEEOS9_OSA_, symObjAddr: 0x6CE8, symBinAddr: 0x10000ECA8, symSize: 0x34 }
  - { offset: 0x10544, size: 0x8, addend: 0x0, symName: __ZNSt3__118__unwrap_iter_implINS_16reverse_iteratorIPP13BPlusTreeNodeEELb0EE8__rewrapB8ne180100ES5_S5_, symObjAddr: 0x6D1C, symBinAddr: 0x10000ECDC, symSize: 0x2C }
  - { offset: 0x10571, size: 0x8, addend: 0x0, symName: __ZNSt3__116reverse_iteratorIPP13BPlusTreeNodeEC2B8ne180100ES3_, symObjAddr: 0x6D48, symBinAddr: 0x10000ED08, symSize: 0x28 }
  - { offset: 0x105A8, size: 0x8, addend: 0x0, symName: __ZNSt3__114__split_bufferIP13BPlusTreeNodeRNS_9allocatorIS2_EEED2Ev, symObjAddr: 0x6D70, symBinAddr: 0x10000ED30, symSize: 0x84 }
  - { offset: 0x105D3, size: 0x8, addend: 0x0, symName: __ZNSt3__114__split_bufferIP13BPlusTreeNodeRNS_9allocatorIS2_EEE5clearB8ne180100Ev, symObjAddr: 0x6DF4, symBinAddr: 0x10000EDB4, symSize: 0x28 }
  - { offset: 0x105F8, size: 0x8, addend: 0x0, symName: __ZNSt3__116allocator_traitsINS_9allocatorIP13BPlusTreeNodeEEE10deallocateB8ne180100ERS4_PS3_m, symObjAddr: 0x6E1C, symBinAddr: 0x10000EDDC, symSize: 0x34 }
  - { offset: 0x1063A, size: 0x8, addend: 0x0, symName: __ZNKSt3__114__split_bufferIP13BPlusTreeNodeRNS_9allocatorIS2_EEE8capacityB8ne180100Ev, symObjAddr: 0x6E50, symBinAddr: 0x10000EE10, symSize: 0x40 }
  - { offset: 0x1065F, size: 0x8, addend: 0x0, symName: __ZNSt3__114__split_bufferIP13BPlusTreeNodeRNS_9allocatorIS2_EEE17__destruct_at_endB8ne180100EPS2_, symObjAddr: 0x6E90, symBinAddr: 0x10000EE50, symSize: 0x2C }
  - { offset: 0x10691, size: 0x8, addend: 0x0, symName: __ZNSt3__114__split_bufferIP13BPlusTreeNodeRNS_9allocatorIS2_EEE17__destruct_at_endB8ne180100EPS2_NS_17integral_constantIbLb0EEE, symObjAddr: 0x6EBC, symBinAddr: 0x10000EE7C, symSize: 0x7C }
  - { offset: 0x106D0, size: 0x8, addend: 0x0, symName: __ZNSt3__116allocator_traitsINS_9allocatorIP13BPlusTreeNodeEEE7destroyB8ne180100IS3_vEEvRS4_PT_, symObjAddr: 0x6F38, symBinAddr: 0x10000EEF8, symSize: 0x2C }
  - { offset: 0x1070D, size: 0x8, addend: 0x0, symName: __ZNSt3__19allocatorIP13BPlusTreeNodeE7destroyB8ne180100EPS2_, symObjAddr: 0x6F64, symBinAddr: 0x10000EF24, symSize: 0x14 }
  - { offset: 0x10740, size: 0x8, addend: 0x0, symName: __ZNSt3__19allocatorIP13BPlusTreeNodeE10deallocateB8ne180100EPS2_m, symObjAddr: 0x6F78, symBinAddr: 0x10000EF38, symSize: 0x40 }
  - { offset: 0x10781, size: 0x8, addend: 0x0, symName: __ZNKSt3__114__split_bufferIP13BPlusTreeNodeRNS_9allocatorIS2_EEE9__end_capB8ne180100Ev, symObjAddr: 0x6FB8, symBinAddr: 0x10000EF78, symSize: 0x28 }
  - { offset: 0x107A6, size: 0x8, addend: 0x0, symName: __ZNKSt3__117__compressed_pairIPP13BPlusTreeNodeRNS_9allocatorIS2_EEE5firstB8ne180100Ev, symObjAddr: 0x6FE0, symBinAddr: 0x10000EFA0, symSize: 0x24 }
  - { offset: 0x107CB, size: 0x8, addend: 0x0, symName: __ZNSt3__16vectorIP13BPlusTreeNodeNS_9allocatorIS2_EEE22__base_destruct_at_endB8ne180100EPS2_, symObjAddr: 0x7004, symBinAddr: 0x10000EFC4, symSize: 0x88 }
  - { offset: 0x1080E, size: 0x8, addend: 0x0, symName: __ZNKSt3__16vectorIP13BPlusTreeNodeNS_9allocatorIS2_EEE17__annotate_shrinkB8ne180100Em, symObjAddr: 0x708C, symBinAddr: 0x10000F04C, symSize: 0x14 }
  - { offset: 0x10842, size: 0x8, addend: 0x0, symName: __ZNSt3__16vectorIiNS_9allocatorIiEEE11__make_iterB8ne180100EPi, symObjAddr: 0x70A0, symBinAddr: 0x10000F060, symSize: 0x30 }
  - { offset: 0x10876, size: 0x8, addend: 0x0, symName: __ZNSt3__111__wrap_iterIPiEC1B8ne180100ES1_, symObjAddr: 0x70D0, symBinAddr: 0x10000F090, symSize: 0x34 }
  - { offset: 0x108AD, size: 0x8, addend: 0x0, symName: __ZNSt3__111__wrap_iterIPiEC2B8ne180100ES1_, symObjAddr: 0x7104, symBinAddr: 0x10000F0C4, symSize: 0x20 }
...
